; Listing generated by Microsoft (R) Optimizing Compiler Version 16.00.30319.01 

	TITLE	C:\Users\Alec\Desktop\GameAISource\VS2010\Buckland_Chapter7 to 10_Raven\navigation\Raven_PathPlanner.cpp
	.686P
	.XMM
	include listing.inc
	.model	flat

INCLUDELIB LIBCMTD
INCLUDELIB OLDNAMES

PUBLIC	?has_denorm@_Num_base@std@@2W4float_denorm_style@2@B ; std::_Num_base::has_denorm
PUBLIC	?has_denorm_loss@_Num_base@std@@2_NB		; std::_Num_base::has_denorm_loss
PUBLIC	?has_infinity@_Num_base@std@@2_NB		; std::_Num_base::has_infinity
PUBLIC	?has_quiet_NaN@_Num_base@std@@2_NB		; std::_Num_base::has_quiet_NaN
PUBLIC	?has_signaling_NaN@_Num_base@std@@2_NB		; std::_Num_base::has_signaling_NaN
PUBLIC	?is_bounded@_Num_base@std@@2_NB			; std::_Num_base::is_bounded
PUBLIC	?is_exact@_Num_base@std@@2_NB			; std::_Num_base::is_exact
PUBLIC	?is_iec559@_Num_base@std@@2_NB			; std::_Num_base::is_iec559
PUBLIC	?is_integer@_Num_base@std@@2_NB			; std::_Num_base::is_integer
PUBLIC	?is_modulo@_Num_base@std@@2_NB			; std::_Num_base::is_modulo
PUBLIC	?is_signed@_Num_base@std@@2_NB			; std::_Num_base::is_signed
PUBLIC	?is_specialized@_Num_base@std@@2_NB		; std::_Num_base::is_specialized
PUBLIC	?tinyness_before@_Num_base@std@@2_NB		; std::_Num_base::tinyness_before
PUBLIC	?traps@_Num_base@std@@2_NB			; std::_Num_base::traps
PUBLIC	?round_style@_Num_base@std@@2W4float_round_style@2@B ; std::_Num_base::round_style
PUBLIC	?digits@_Num_base@std@@2HB			; std::_Num_base::digits
PUBLIC	?digits10@_Num_base@std@@2HB			; std::_Num_base::digits10
PUBLIC	?max_digits10@_Num_base@std@@2HB		; std::_Num_base::max_digits10
PUBLIC	?max_exponent@_Num_base@std@@2HB		; std::_Num_base::max_exponent
PUBLIC	?max_exponent10@_Num_base@std@@2HB		; std::_Num_base::max_exponent10
PUBLIC	?min_exponent@_Num_base@std@@2HB		; std::_Num_base::min_exponent
PUBLIC	?min_exponent10@_Num_base@std@@2HB		; std::_Num_base::min_exponent10
PUBLIC	?radix@_Num_base@std@@2HB			; std::_Num_base::radix
PUBLIC	?is_bounded@_Num_int_base@std@@2_NB		; std::_Num_int_base::is_bounded
PUBLIC	?is_exact@_Num_int_base@std@@2_NB		; std::_Num_int_base::is_exact
PUBLIC	?is_integer@_Num_int_base@std@@2_NB		; std::_Num_int_base::is_integer
PUBLIC	?is_modulo@_Num_int_base@std@@2_NB		; std::_Num_int_base::is_modulo
PUBLIC	?is_specialized@_Num_int_base@std@@2_NB		; std::_Num_int_base::is_specialized
PUBLIC	?radix@_Num_int_base@std@@2HB			; std::_Num_int_base::radix
PUBLIC	?has_denorm@_Num_float_base@std@@2W4float_denorm_style@2@B ; std::_Num_float_base::has_denorm
PUBLIC	?has_denorm_loss@_Num_float_base@std@@2_NB	; std::_Num_float_base::has_denorm_loss
PUBLIC	?has_infinity@_Num_float_base@std@@2_NB		; std::_Num_float_base::has_infinity
PUBLIC	?has_quiet_NaN@_Num_float_base@std@@2_NB	; std::_Num_float_base::has_quiet_NaN
PUBLIC	?has_signaling_NaN@_Num_float_base@std@@2_NB	; std::_Num_float_base::has_signaling_NaN
PUBLIC	?is_bounded@_Num_float_base@std@@2_NB		; std::_Num_float_base::is_bounded
PUBLIC	?is_exact@_Num_float_base@std@@2_NB		; std::_Num_float_base::is_exact
PUBLIC	?is_iec559@_Num_float_base@std@@2_NB		; std::_Num_float_base::is_iec559
PUBLIC	?is_integer@_Num_float_base@std@@2_NB		; std::_Num_float_base::is_integer
PUBLIC	?is_modulo@_Num_float_base@std@@2_NB		; std::_Num_float_base::is_modulo
PUBLIC	?is_signed@_Num_float_base@std@@2_NB		; std::_Num_float_base::is_signed
PUBLIC	?is_specialized@_Num_float_base@std@@2_NB	; std::_Num_float_base::is_specialized
PUBLIC	?tinyness_before@_Num_float_base@std@@2_NB	; std::_Num_float_base::tinyness_before
PUBLIC	?traps@_Num_float_base@std@@2_NB		; std::_Num_float_base::traps
PUBLIC	?round_style@_Num_float_base@std@@2W4float_round_style@2@B ; std::_Num_float_base::round_style
PUBLIC	?radix@_Num_float_base@std@@2HB			; std::_Num_float_base::radix
PUBLIC	?is_signed@?$numeric_limits@D@std@@2_NB		; std::numeric_limits<char>::is_signed
PUBLIC	?digits@?$numeric_limits@D@std@@2HB		; std::numeric_limits<char>::digits
PUBLIC	?digits10@?$numeric_limits@D@std@@2HB		; std::numeric_limits<char>::digits10
PUBLIC	?max_digits10@?$numeric_limits@D@std@@2HB	; std::numeric_limits<char>::max_digits10
PUBLIC	?is_signed@?$numeric_limits@_W@std@@2_NB	; std::numeric_limits<wchar_t>::is_signed
PUBLIC	?digits@?$numeric_limits@_W@std@@2HB		; std::numeric_limits<wchar_t>::digits
PUBLIC	?digits10@?$numeric_limits@_W@std@@2HB		; std::numeric_limits<wchar_t>::digits10
PUBLIC	?max_digits10@?$numeric_limits@_W@std@@2HB	; std::numeric_limits<wchar_t>::max_digits10
PUBLIC	?is_modulo@?$numeric_limits@_N@std@@2_NB	; std::numeric_limits<bool>::is_modulo
PUBLIC	?is_signed@?$numeric_limits@_N@std@@2_NB	; std::numeric_limits<bool>::is_signed
PUBLIC	?digits@?$numeric_limits@_N@std@@2HB		; std::numeric_limits<bool>::digits
PUBLIC	?digits10@?$numeric_limits@_N@std@@2HB		; std::numeric_limits<bool>::digits10
PUBLIC	?max_digits10@?$numeric_limits@_N@std@@2HB	; std::numeric_limits<bool>::max_digits10
PUBLIC	?is_signed@?$numeric_limits@C@std@@2_NB		; std::numeric_limits<signed char>::is_signed
PUBLIC	?digits@?$numeric_limits@C@std@@2HB		; std::numeric_limits<signed char>::digits
PUBLIC	?digits10@?$numeric_limits@C@std@@2HB		; std::numeric_limits<signed char>::digits10
PUBLIC	?max_digits10@?$numeric_limits@C@std@@2HB	; std::numeric_limits<signed char>::max_digits10
PUBLIC	?is_signed@?$numeric_limits@E@std@@2_NB		; std::numeric_limits<unsigned char>::is_signed
PUBLIC	?digits@?$numeric_limits@E@std@@2HB		; std::numeric_limits<unsigned char>::digits
PUBLIC	?digits10@?$numeric_limits@E@std@@2HB		; std::numeric_limits<unsigned char>::digits10
PUBLIC	?max_digits10@?$numeric_limits@E@std@@2HB	; std::numeric_limits<unsigned char>::max_digits10
PUBLIC	?is_signed@?$numeric_limits@F@std@@2_NB		; std::numeric_limits<short>::is_signed
PUBLIC	?digits@?$numeric_limits@F@std@@2HB		; std::numeric_limits<short>::digits
PUBLIC	?digits10@?$numeric_limits@F@std@@2HB		; std::numeric_limits<short>::digits10
PUBLIC	?max_digits10@?$numeric_limits@F@std@@2HB	; std::numeric_limits<short>::max_digits10
PUBLIC	?is_signed@?$numeric_limits@G@std@@2_NB		; std::numeric_limits<unsigned short>::is_signed
PUBLIC	?digits@?$numeric_limits@G@std@@2HB		; std::numeric_limits<unsigned short>::digits
PUBLIC	?digits10@?$numeric_limits@G@std@@2HB		; std::numeric_limits<unsigned short>::digits10
PUBLIC	?max_digits10@?$numeric_limits@G@std@@2HB	; std::numeric_limits<unsigned short>::max_digits10
PUBLIC	?is_signed@?$numeric_limits@H@std@@2_NB		; std::numeric_limits<int>::is_signed
PUBLIC	?digits@?$numeric_limits@H@std@@2HB		; std::numeric_limits<int>::digits
PUBLIC	?digits10@?$numeric_limits@H@std@@2HB		; std::numeric_limits<int>::digits10
PUBLIC	?max_digits10@?$numeric_limits@H@std@@2HB	; std::numeric_limits<int>::max_digits10
PUBLIC	?is_signed@?$numeric_limits@I@std@@2_NB		; std::numeric_limits<unsigned int>::is_signed
PUBLIC	?digits@?$numeric_limits@I@std@@2HB		; std::numeric_limits<unsigned int>::digits
PUBLIC	?digits10@?$numeric_limits@I@std@@2HB		; std::numeric_limits<unsigned int>::digits10
PUBLIC	?max_digits10@?$numeric_limits@I@std@@2HB	; std::numeric_limits<unsigned int>::max_digits10
PUBLIC	?is_signed@?$numeric_limits@J@std@@2_NB		; std::numeric_limits<long>::is_signed
PUBLIC	?digits@?$numeric_limits@J@std@@2HB		; std::numeric_limits<long>::digits
PUBLIC	?digits10@?$numeric_limits@J@std@@2HB		; std::numeric_limits<long>::digits10
PUBLIC	?max_digits10@?$numeric_limits@J@std@@2HB	; std::numeric_limits<long>::max_digits10
PUBLIC	?is_signed@?$numeric_limits@K@std@@2_NB		; std::numeric_limits<unsigned long>::is_signed
PUBLIC	?digits@?$numeric_limits@K@std@@2HB		; std::numeric_limits<unsigned long>::digits
PUBLIC	?digits10@?$numeric_limits@K@std@@2HB		; std::numeric_limits<unsigned long>::digits10
PUBLIC	?max_digits10@?$numeric_limits@K@std@@2HB	; std::numeric_limits<unsigned long>::max_digits10
PUBLIC	?is_signed@?$numeric_limits@_J@std@@2_NB	; std::numeric_limits<__int64>::is_signed
PUBLIC	?digits@?$numeric_limits@_J@std@@2HB		; std::numeric_limits<__int64>::digits
PUBLIC	?digits10@?$numeric_limits@_J@std@@2HB		; std::numeric_limits<__int64>::digits10
PUBLIC	?max_digits10@?$numeric_limits@_J@std@@2HB	; std::numeric_limits<__int64>::max_digits10
PUBLIC	?is_signed@?$numeric_limits@_K@std@@2_NB	; std::numeric_limits<unsigned __int64>::is_signed
PUBLIC	?digits@?$numeric_limits@_K@std@@2HB		; std::numeric_limits<unsigned __int64>::digits
PUBLIC	?digits10@?$numeric_limits@_K@std@@2HB		; std::numeric_limits<unsigned __int64>::digits10
PUBLIC	?max_digits10@?$numeric_limits@_K@std@@2HB	; std::numeric_limits<unsigned __int64>::max_digits10
PUBLIC	?digits@?$numeric_limits@M@std@@2HB		; std::numeric_limits<float>::digits
PUBLIC	?digits10@?$numeric_limits@M@std@@2HB		; std::numeric_limits<float>::digits10
PUBLIC	?max_digits10@?$numeric_limits@M@std@@2HB	; std::numeric_limits<float>::max_digits10
PUBLIC	?max_exponent@?$numeric_limits@M@std@@2HB	; std::numeric_limits<float>::max_exponent
PUBLIC	?max_exponent10@?$numeric_limits@M@std@@2HB	; std::numeric_limits<float>::max_exponent10
PUBLIC	?min_exponent@?$numeric_limits@M@std@@2HB	; std::numeric_limits<float>::min_exponent
PUBLIC	?min_exponent10@?$numeric_limits@M@std@@2HB	; std::numeric_limits<float>::min_exponent10
PUBLIC	?digits@?$numeric_limits@N@std@@2HB		; std::numeric_limits<double>::digits
PUBLIC	?digits10@?$numeric_limits@N@std@@2HB		; std::numeric_limits<double>::digits10
PUBLIC	?max_digits10@?$numeric_limits@N@std@@2HB	; std::numeric_limits<double>::max_digits10
PUBLIC	?max_exponent@?$numeric_limits@N@std@@2HB	; std::numeric_limits<double>::max_exponent
PUBLIC	?max_exponent10@?$numeric_limits@N@std@@2HB	; std::numeric_limits<double>::max_exponent10
PUBLIC	?min_exponent@?$numeric_limits@N@std@@2HB	; std::numeric_limits<double>::min_exponent
PUBLIC	?min_exponent10@?$numeric_limits@N@std@@2HB	; std::numeric_limits<double>::min_exponent10
PUBLIC	?digits@?$numeric_limits@O@std@@2HB		; std::numeric_limits<long double>::digits
PUBLIC	?digits10@?$numeric_limits@O@std@@2HB		; std::numeric_limits<long double>::digits10
PUBLIC	?max_digits10@?$numeric_limits@O@std@@2HB	; std::numeric_limits<long double>::max_digits10
PUBLIC	?max_exponent@?$numeric_limits@O@std@@2HB	; std::numeric_limits<long double>::max_exponent
PUBLIC	?max_exponent10@?$numeric_limits@O@std@@2HB	; std::numeric_limits<long double>::max_exponent10
PUBLIC	?min_exponent@?$numeric_limits@O@std@@2HB	; std::numeric_limits<long double>::min_exponent
PUBLIC	?min_exponent10@?$numeric_limits@O@std@@2HB	; std::numeric_limits<long double>::min_exponent10
PUBLIC	?value@?$integral_constant@_N$0A@@tr1@std@@2_NB	; std::tr1::integral_constant<bool,0>::value
PUBLIC	?value@?$integral_constant@_N$00@tr1@std@@2_NB	; std::tr1::integral_constant<bool,1>::value
PUBLIC	?value@?$integral_constant@I$0A@@tr1@std@@2IB	; std::tr1::integral_constant<unsigned int,0>::value
PUBLIC	?_Rank@?$_Arithmetic_traits@_N@std@@2HB		; std::_Arithmetic_traits<bool>::_Rank
PUBLIC	?_Rank@?$_Arithmetic_traits@D@std@@2HB		; std::_Arithmetic_traits<char>::_Rank
PUBLIC	?_Rank@?$_Arithmetic_traits@C@std@@2HB		; std::_Arithmetic_traits<signed char>::_Rank
PUBLIC	?_Rank@?$_Arithmetic_traits@E@std@@2HB		; std::_Arithmetic_traits<unsigned char>::_Rank
PUBLIC	?_Rank@?$_Arithmetic_traits@F@std@@2HB		; std::_Arithmetic_traits<short>::_Rank
PUBLIC	?_Rank@?$_Arithmetic_traits@G@std@@2HB		; std::_Arithmetic_traits<unsigned short>::_Rank
PUBLIC	?_Rank@?$_Arithmetic_traits@H@std@@2HB		; std::_Arithmetic_traits<int>::_Rank
PUBLIC	?_Rank@?$_Arithmetic_traits@I@std@@2HB		; std::_Arithmetic_traits<unsigned int>::_Rank
PUBLIC	?_Rank@?$_Arithmetic_traits@J@std@@2HB		; std::_Arithmetic_traits<long>::_Rank
PUBLIC	?_Rank@?$_Arithmetic_traits@K@std@@2HB		; std::_Arithmetic_traits<unsigned long>::_Rank
PUBLIC	?_Rank@?$_Arithmetic_traits@_J@std@@2HB		; std::_Arithmetic_traits<__int64>::_Rank
PUBLIC	?_Rank@?$_Arithmetic_traits@_K@std@@2HB		; std::_Arithmetic_traits<unsigned __int64>::_Rank
PUBLIC	?_Rank@?$_Arithmetic_traits@M@std@@2HB		; std::_Arithmetic_traits<float>::_Rank
PUBLIC	?_Rank@?$_Arithmetic_traits@N@std@@2HB		; std::_Arithmetic_traits<double>::_Rank
PUBLIC	?_Rank@?$_Arithmetic_traits@O@std@@2HB		; std::_Arithmetic_traits<long double>::_Rank
PUBLIC	?collate@?$_Locbase@H@std@@2HB			; std::_Locbase<int>::collate
PUBLIC	?ctype@?$_Locbase@H@std@@2HB			; std::_Locbase<int>::ctype
PUBLIC	?monetary@?$_Locbase@H@std@@2HB			; std::_Locbase<int>::monetary
PUBLIC	?numeric@?$_Locbase@H@std@@2HB			; std::_Locbase<int>::numeric
PUBLIC	?time@?$_Locbase@H@std@@2HB			; std::_Locbase<int>::time
PUBLIC	?messages@?$_Locbase@H@std@@2HB			; std::_Locbase<int>::messages
PUBLIC	?all@?$_Locbase@H@std@@2HB			; std::_Locbase<int>::all
PUBLIC	?none@?$_Locbase@H@std@@2HB			; std::_Locbase<int>::none
PUBLIC	?table_size@?$ctype@D@std@@2IB			; std::ctype<char>::table_size
PUBLIC	?skipws@?$_Iosb@H@std@@2W4_Fmtflags@12@B	; std::_Iosb<int>::skipws
PUBLIC	?unitbuf@?$_Iosb@H@std@@2W4_Fmtflags@12@B	; std::_Iosb<int>::unitbuf
PUBLIC	?uppercase@?$_Iosb@H@std@@2W4_Fmtflags@12@B	; std::_Iosb<int>::uppercase
PUBLIC	?showbase@?$_Iosb@H@std@@2W4_Fmtflags@12@B	; std::_Iosb<int>::showbase
PUBLIC	?showpoint@?$_Iosb@H@std@@2W4_Fmtflags@12@B	; std::_Iosb<int>::showpoint
PUBLIC	?showpos@?$_Iosb@H@std@@2W4_Fmtflags@12@B	; std::_Iosb<int>::showpos
PUBLIC	?left@?$_Iosb@H@std@@2W4_Fmtflags@12@B		; std::_Iosb<int>::left
PUBLIC	?right@?$_Iosb@H@std@@2W4_Fmtflags@12@B		; std::_Iosb<int>::right
PUBLIC	?internal@?$_Iosb@H@std@@2W4_Fmtflags@12@B	; std::_Iosb<int>::internal
PUBLIC	?dec@?$_Iosb@H@std@@2W4_Fmtflags@12@B		; std::_Iosb<int>::dec
PUBLIC	?oct@?$_Iosb@H@std@@2W4_Fmtflags@12@B		; std::_Iosb<int>::oct
PUBLIC	?hex@?$_Iosb@H@std@@2W4_Fmtflags@12@B		; std::_Iosb<int>::hex
PUBLIC	?scientific@?$_Iosb@H@std@@2W4_Fmtflags@12@B	; std::_Iosb<int>::scientific
PUBLIC	?fixed@?$_Iosb@H@std@@2W4_Fmtflags@12@B		; std::_Iosb<int>::fixed
PUBLIC	?hexfloat@?$_Iosb@H@std@@2W4_Fmtflags@12@B	; std::_Iosb<int>::hexfloat
PUBLIC	?boolalpha@?$_Iosb@H@std@@2W4_Fmtflags@12@B	; std::_Iosb<int>::boolalpha
PUBLIC	?_Stdio@?$_Iosb@H@std@@2W4_Fmtflags@12@B	; std::_Iosb<int>::_Stdio
PUBLIC	?adjustfield@?$_Iosb@H@std@@2W4_Fmtflags@12@B	; std::_Iosb<int>::adjustfield
PUBLIC	?basefield@?$_Iosb@H@std@@2W4_Fmtflags@12@B	; std::_Iosb<int>::basefield
PUBLIC	?floatfield@?$_Iosb@H@std@@2W4_Fmtflags@12@B	; std::_Iosb<int>::floatfield
PUBLIC	?goodbit@?$_Iosb@H@std@@2W4_Iostate@12@B	; std::_Iosb<int>::goodbit
PUBLIC	?eofbit@?$_Iosb@H@std@@2W4_Iostate@12@B		; std::_Iosb<int>::eofbit
PUBLIC	?failbit@?$_Iosb@H@std@@2W4_Iostate@12@B	; std::_Iosb<int>::failbit
PUBLIC	?badbit@?$_Iosb@H@std@@2W4_Iostate@12@B		; std::_Iosb<int>::badbit
PUBLIC	?_Hardfail@?$_Iosb@H@std@@2W4_Iostate@12@B	; std::_Iosb<int>::_Hardfail
PUBLIC	?in@?$_Iosb@H@std@@2W4_Openmode@12@B		; std::_Iosb<int>::in
PUBLIC	?out@?$_Iosb@H@std@@2W4_Openmode@12@B		; std::_Iosb<int>::out
PUBLIC	?ate@?$_Iosb@H@std@@2W4_Openmode@12@B		; std::_Iosb<int>::ate
PUBLIC	?app@?$_Iosb@H@std@@2W4_Openmode@12@B		; std::_Iosb<int>::app
PUBLIC	?trunc@?$_Iosb@H@std@@2W4_Openmode@12@B		; std::_Iosb<int>::trunc
PUBLIC	?_Nocreate@?$_Iosb@H@std@@2W4_Openmode@12@B	; std::_Iosb<int>::_Nocreate
PUBLIC	?_Noreplace@?$_Iosb@H@std@@2W4_Openmode@12@B	; std::_Iosb<int>::_Noreplace
PUBLIC	?binary@?$_Iosb@H@std@@2W4_Openmode@12@B	; std::_Iosb<int>::binary
PUBLIC	?beg@?$_Iosb@H@std@@2W4_Seekdir@12@B		; std::_Iosb<int>::beg
PUBLIC	?cur@?$_Iosb@H@std@@2W4_Seekdir@12@B		; std::_Iosb<int>::cur
PUBLIC	?end@?$_Iosb@H@std@@2W4_Seekdir@12@B		; std::_Iosb<int>::end
CONST	SEGMENT
_Pi	DQ	0400921f9f01b866er		; 3.14159
_colors	DD	0ffH
	DD	0ff0000H
	DD	0ff00H
	DD	00H
	DD	0c8c8ffH
	DD	0c8c8c8H
	DD	0ffffH
	DD	0aaffH
	DD	0aa00ffH
	DD	05a85H
	DD	0ffffffH
	DD	06400H
	DD	0ffff00H
	DD	0c8c8c8H
	DD	0e6e6ffH
$SG144969 DB	'YOU FREAKING FAILED', 00H
_pi	DQ	0400921f9f01b866er		; 3.14159
_SmallestDelay DQ 03fd0000000000000r		; 0.25
_SEND_MSG_IMMEDIATELY DQ 00000000000000000r	; 0
$SG144955 DB	'<Raven_PathPlanner::GetPathAsNodes>: no current search', 00H
$SG144970 DB	00H
$SG144956 DB	'n', 00H, 'a', 00H, 'v', 00H, 'i', 00H, 'g', 00H, 'a', 00H
	DB	't', 00H, 'i', 00H, 'o', 00H, 'n', 00H, '\', 00H, 'R', 00H, 'a'
	DB	00H, 'v', 00H, 'e', 00H, 'n', 00H, '_', 00H, 'P', 00H, 'a', 00H
	DB	't', 00H, 'h', 00H, 'P', 00H, 'l', 00H, 'a', 00H, 'n', 00H, 'n'
	DB	00H, 'e', 00H, 'r', 00H, '.', 00H, 'c', 00H, 'p', 00H, 'p', 00H
	DB	00H, 00H
	ORG $+6
$SG144957 DB	'm', 00H, '_', 00H, 'p', 00H, 'C', 00H, 'u', 00H, 'r', 00H
	DB	'r', 00H, 'e', 00H, 'n', 00H, 't', 00H, 'S', 00H, 'e', 00H, 'a'
	DB	00H, 'r', 00H, 'c', 00H, 'h', 00H, ' ', 00H, '&', 00H, '&', 00H
	DB	' ', 00H, '"', 00H, '<', 00H, 'R', 00H, 'a', 00H, 'v', 00H, 'e'
	DB	00H, 'n', 00H, '_', 00H, 'P', 00H, 'a', 00H, 't', 00H, 'h', 00H
	DB	'P', 00H, 'l', 00H, 'a', 00H, 'n', 00H, 'n', 00H, 'e', 00H, 'r'
	DB	00H, ':', 00H, ':', 00H, 'G', 00H, 'e', 00H, 't', 00H, 'P', 00H
	DB	'a', 00H, 't', 00H, 'h', 00H, 'A', 00H, 's', 00H, 'N', 00H, 'o'
	DB	00H, 'd', 00H, 'e', 00H, 's', 00H, '>', 00H, ':', 00H, ' ', 00H
	DB	'n', 00H, 'o', 00H, ' ', 00H, 'c', 00H, 'u', 00H, 'r', 00H, 'r'
	DB	00H, 'e', 00H, 'n', 00H, 't', 00H, ' ', 00H, 's', 00H, 'e', 00H
	DB	'a', 00H, 'r', 00H, 'c', 00H, 'h', 00H, '"', 00H, 00H, 00H
	ORG $+2
$SG145227 DB	'<Raven_PathPlanner::CycleOnce>: No search object instant'
	DB	'iated', 00H
	ORG $+6
$SG145228 DB	'n', 00H, 'a', 00H, 'v', 00H, 'i', 00H, 'g', 00H, 'a', 00H
	DB	't', 00H, 'i', 00H, 'o', 00H, 'n', 00H, '\', 00H, 'R', 00H, 'a'
	DB	00H, 'v', 00H, 'e', 00H, 'n', 00H, '_', 00H, 'P', 00H, 'a', 00H
	DB	't', 00H, 'h', 00H, 'P', 00H, 'l', 00H, 'a', 00H, 'n', 00H, 'n'
	DB	00H, 'e', 00H, 'r', 00H, '.', 00H, 'c', 00H, 'p', 00H, 'p', 00H
	DB	00H, 00H
	ORG $+6
$SG145229 DB	'm', 00H, '_', 00H, 'p', 00H, 'C', 00H, 'u', 00H, 'r', 00H
	DB	'r', 00H, 'e', 00H, 'n', 00H, 't', 00H, 'S', 00H, 'e', 00H, 'a'
	DB	00H, 'r', 00H, 'c', 00H, 'h', 00H, ' ', 00H, '&', 00H, '&', 00H
	DB	' ', 00H, '"', 00H, '<', 00H, 'R', 00H, 'a', 00H, 'v', 00H, 'e'
	DB	00H, 'n', 00H, '_', 00H, 'P', 00H, 'a', 00H, 't', 00H, 'h', 00H
	DB	'P', 00H, 'l', 00H, 'a', 00H, 'n', 00H, 'n', 00H, 'e', 00H, 'r'
	DB	00H, ':', 00H, ':', 00H, 'C', 00H, 'y', 00H, 'c', 00H, 'l', 00H
	DB	'e', 00H, 'O', 00H, 'n', 00H, 'c', 00H, 'e', 00H, '>', 00H, ':'
	DB	00H, ' ', 00H, 'N', 00H, 'o', 00H, ' ', 00H, 's', 00H, 'e', 00H
	DB	'a', 00H, 'r', 00H, 'c', 00H, 'h', 00H, ' ', 00H, 'o', 00H, 'b'
	DB	00H, 'j', 00H, 'e', 00H, 'c', 00H, 't', 00H, ' ', 00H, 'i', 00H
	DB	'n', 00H, 's', 00H, 't', 00H, 'a', 00H, 'n', 00H, 't', 00H, 'i'
	DB	00H, 'a', 00H, 't', 00H, 'e', 00H, 'd', 00H, '"', 00H, 00H, 00H
$SG153812 DB	'<SparseGraph::GetNode>: invalid index', 00H
	ORG $+2
$SG153813 DB	'C', 00H, ':', 00H, '\', 00H, 'U', 00H, 's', 00H, 'e', 00H
	DB	'r', 00H, 's', 00H, '\', 00H, 'A', 00H, 'l', 00H, 'e', 00H, 'c'
	DB	00H, '\', 00H, 'D', 00H, 'e', 00H, 's', 00H, 'k', 00H, 't', 00H
	DB	'o', 00H, 'p', 00H, '\', 00H, 'G', 00H, 'a', 00H, 'm', 00H, 'e'
	DB	00H, 'A', 00H, 'I', 00H, 'S', 00H, 'o', 00H, 'u', 00H, 'r', 00H
	DB	'c', 00H, 'e', 00H, '\', 00H, 'V', 00H, 'S', 00H, '2', 00H, '0'
	DB	00H, '1', 00H, '0', 00H, '\', 00H, 'C', 00H, 'o', 00H, 'm', 00H
	DB	'm', 00H, 'o', 00H, 'n', 00H, '\', 00H, 'g', 00H, 'r', 00H, 'a'
	DB	00H, 'p', 00H, 'h', 00H, '/', 00H, 'S', 00H, 'p', 00H, 'a', 00H
	DB	'r', 00H, 's', 00H, 'e', 00H, 'G', 00H, 'r', 00H, 'a', 00H, 'p'
	DB	00H, 'h', 00H, '.', 00H, 'h', 00H, 00H, 00H
	ORG $+6
$SG153814 DB	'(', 00H, 'i', 00H, 'd', 00H, 'x', 00H, ' ', 00H, '<', 00H
	DB	' ', 00H, '(', 00H, 'i', 00H, 'n', 00H, 't', 00H, ')', 00H, 'm'
	DB	00H, '_', 00H, 'N', 00H, 'o', 00H, 'd', 00H, 'e', 00H, 's', 00H
	DB	'.', 00H, 's', 00H, 'i', 00H, 'z', 00H, 'e', 00H, '(', 00H, ')'
	DB	00H, ')', 00H, ' ', 00H, '&', 00H, '&', 00H, ' ', 00H, '(', 00H
	DB	'i', 00H, 'd', 00H, 'x', 00H, ' ', 00H, '>', 00H, '=', 00H, '0'
	DB	00H, ')', 00H, ' ', 00H, '&', 00H, '&', 00H, ' ', 00H, '"', 00H
	DB	'<', 00H, 'S', 00H, 'p', 00H, 'a', 00H, 'r', 00H, 's', 00H, 'e'
	DB	00H, 'G', 00H, 'r', 00H, 'a', 00H, 'p', 00H, 'h', 00H, ':', 00H
	DB	':', 00H, 'G', 00H, 'e', 00H, 't', 00H, 'N', 00H, 'o', 00H, 'd'
	DB	00H, 'e', 00H, '>', 00H, ':', 00H, ' ', 00H, 'i', 00H, 'n', 00H
	DB	'v', 00H, 'a', 00H, 'l', 00H, 'i', 00H, 'd', 00H, ' ', 00H, 'i'
	DB	00H, 'n', 00H, 'd', 00H, 'e', 00H, 'x', 00H, '"', 00H, 00H, 00H
CONST	ENDS
;	COMDAT ?end@?$_Iosb@H@std@@2W4_Seekdir@12@B
CONST	SEGMENT
?end@?$_Iosb@H@std@@2W4_Seekdir@12@B DD 02H		; std::_Iosb<int>::end
CONST	ENDS
;	COMDAT ?cur@?$_Iosb@H@std@@2W4_Seekdir@12@B
CONST	SEGMENT
?cur@?$_Iosb@H@std@@2W4_Seekdir@12@B DD 01H		; std::_Iosb<int>::cur
CONST	ENDS
;	COMDAT ?beg@?$_Iosb@H@std@@2W4_Seekdir@12@B
CONST	SEGMENT
?beg@?$_Iosb@H@std@@2W4_Seekdir@12@B DD 00H		; std::_Iosb<int>::beg
CONST	ENDS
;	COMDAT ?binary@?$_Iosb@H@std@@2W4_Openmode@12@B
CONST	SEGMENT
?binary@?$_Iosb@H@std@@2W4_Openmode@12@B DD 020H	; std::_Iosb<int>::binary
CONST	ENDS
;	COMDAT ?_Noreplace@?$_Iosb@H@std@@2W4_Openmode@12@B
CONST	SEGMENT
?_Noreplace@?$_Iosb@H@std@@2W4_Openmode@12@B DD 080H	; std::_Iosb<int>::_Noreplace
CONST	ENDS
;	COMDAT ?_Nocreate@?$_Iosb@H@std@@2W4_Openmode@12@B
CONST	SEGMENT
?_Nocreate@?$_Iosb@H@std@@2W4_Openmode@12@B DD 040H	; std::_Iosb<int>::_Nocreate
CONST	ENDS
;	COMDAT ?trunc@?$_Iosb@H@std@@2W4_Openmode@12@B
CONST	SEGMENT
?trunc@?$_Iosb@H@std@@2W4_Openmode@12@B DD 010H		; std::_Iosb<int>::trunc
CONST	ENDS
;	COMDAT ?app@?$_Iosb@H@std@@2W4_Openmode@12@B
CONST	SEGMENT
?app@?$_Iosb@H@std@@2W4_Openmode@12@B DD 08H		; std::_Iosb<int>::app
CONST	ENDS
;	COMDAT ?ate@?$_Iosb@H@std@@2W4_Openmode@12@B
CONST	SEGMENT
?ate@?$_Iosb@H@std@@2W4_Openmode@12@B DD 04H		; std::_Iosb<int>::ate
CONST	ENDS
;	COMDAT ?out@?$_Iosb@H@std@@2W4_Openmode@12@B
CONST	SEGMENT
?out@?$_Iosb@H@std@@2W4_Openmode@12@B DD 02H		; std::_Iosb<int>::out
CONST	ENDS
;	COMDAT ?in@?$_Iosb@H@std@@2W4_Openmode@12@B
CONST	SEGMENT
?in@?$_Iosb@H@std@@2W4_Openmode@12@B DD 01H		; std::_Iosb<int>::in
CONST	ENDS
;	COMDAT ?_Hardfail@?$_Iosb@H@std@@2W4_Iostate@12@B
CONST	SEGMENT
?_Hardfail@?$_Iosb@H@std@@2W4_Iostate@12@B DD 010H	; std::_Iosb<int>::_Hardfail
CONST	ENDS
;	COMDAT ?badbit@?$_Iosb@H@std@@2W4_Iostate@12@B
CONST	SEGMENT
?badbit@?$_Iosb@H@std@@2W4_Iostate@12@B DD 04H		; std::_Iosb<int>::badbit
CONST	ENDS
;	COMDAT ?failbit@?$_Iosb@H@std@@2W4_Iostate@12@B
CONST	SEGMENT
?failbit@?$_Iosb@H@std@@2W4_Iostate@12@B DD 02H		; std::_Iosb<int>::failbit
CONST	ENDS
;	COMDAT ?eofbit@?$_Iosb@H@std@@2W4_Iostate@12@B
CONST	SEGMENT
?eofbit@?$_Iosb@H@std@@2W4_Iostate@12@B DD 01H		; std::_Iosb<int>::eofbit
CONST	ENDS
;	COMDAT ?goodbit@?$_Iosb@H@std@@2W4_Iostate@12@B
CONST	SEGMENT
?goodbit@?$_Iosb@H@std@@2W4_Iostate@12@B DD 00H		; std::_Iosb<int>::goodbit
CONST	ENDS
;	COMDAT ?floatfield@?$_Iosb@H@std@@2W4_Fmtflags@12@B
CONST	SEGMENT
?floatfield@?$_Iosb@H@std@@2W4_Fmtflags@12@B DD 03000H	; std::_Iosb<int>::floatfield
CONST	ENDS
;	COMDAT ?basefield@?$_Iosb@H@std@@2W4_Fmtflags@12@B
CONST	SEGMENT
?basefield@?$_Iosb@H@std@@2W4_Fmtflags@12@B DD 0e00H	; std::_Iosb<int>::basefield
CONST	ENDS
;	COMDAT ?adjustfield@?$_Iosb@H@std@@2W4_Fmtflags@12@B
CONST	SEGMENT
?adjustfield@?$_Iosb@H@std@@2W4_Fmtflags@12@B DD 01c0H	; std::_Iosb<int>::adjustfield
CONST	ENDS
;	COMDAT ?_Stdio@?$_Iosb@H@std@@2W4_Fmtflags@12@B
CONST	SEGMENT
?_Stdio@?$_Iosb@H@std@@2W4_Fmtflags@12@B DD 08000H	; std::_Iosb<int>::_Stdio
CONST	ENDS
;	COMDAT ?boolalpha@?$_Iosb@H@std@@2W4_Fmtflags@12@B
CONST	SEGMENT
?boolalpha@?$_Iosb@H@std@@2W4_Fmtflags@12@B DD 04000H	; std::_Iosb<int>::boolalpha
CONST	ENDS
;	COMDAT ?hexfloat@?$_Iosb@H@std@@2W4_Fmtflags@12@B
CONST	SEGMENT
?hexfloat@?$_Iosb@H@std@@2W4_Fmtflags@12@B DD 03000H	; std::_Iosb<int>::hexfloat
CONST	ENDS
;	COMDAT ?fixed@?$_Iosb@H@std@@2W4_Fmtflags@12@B
CONST	SEGMENT
?fixed@?$_Iosb@H@std@@2W4_Fmtflags@12@B DD 02000H	; std::_Iosb<int>::fixed
CONST	ENDS
;	COMDAT ?scientific@?$_Iosb@H@std@@2W4_Fmtflags@12@B
CONST	SEGMENT
?scientific@?$_Iosb@H@std@@2W4_Fmtflags@12@B DD 01000H	; std::_Iosb<int>::scientific
CONST	ENDS
;	COMDAT ?hex@?$_Iosb@H@std@@2W4_Fmtflags@12@B
CONST	SEGMENT
?hex@?$_Iosb@H@std@@2W4_Fmtflags@12@B DD 0800H		; std::_Iosb<int>::hex
CONST	ENDS
;	COMDAT ?oct@?$_Iosb@H@std@@2W4_Fmtflags@12@B
CONST	SEGMENT
?oct@?$_Iosb@H@std@@2W4_Fmtflags@12@B DD 0400H		; std::_Iosb<int>::oct
CONST	ENDS
;	COMDAT ?dec@?$_Iosb@H@std@@2W4_Fmtflags@12@B
CONST	SEGMENT
?dec@?$_Iosb@H@std@@2W4_Fmtflags@12@B DD 0200H		; std::_Iosb<int>::dec
CONST	ENDS
;	COMDAT ?internal@?$_Iosb@H@std@@2W4_Fmtflags@12@B
CONST	SEGMENT
?internal@?$_Iosb@H@std@@2W4_Fmtflags@12@B DD 0100H	; std::_Iosb<int>::internal
CONST	ENDS
;	COMDAT ?right@?$_Iosb@H@std@@2W4_Fmtflags@12@B
CONST	SEGMENT
?right@?$_Iosb@H@std@@2W4_Fmtflags@12@B DD 080H		; std::_Iosb<int>::right
CONST	ENDS
;	COMDAT ?left@?$_Iosb@H@std@@2W4_Fmtflags@12@B
CONST	SEGMENT
?left@?$_Iosb@H@std@@2W4_Fmtflags@12@B DD 040H		; std::_Iosb<int>::left
CONST	ENDS
;	COMDAT ?showpos@?$_Iosb@H@std@@2W4_Fmtflags@12@B
CONST	SEGMENT
?showpos@?$_Iosb@H@std@@2W4_Fmtflags@12@B DD 020H	; std::_Iosb<int>::showpos
CONST	ENDS
;	COMDAT ?showpoint@?$_Iosb@H@std@@2W4_Fmtflags@12@B
CONST	SEGMENT
?showpoint@?$_Iosb@H@std@@2W4_Fmtflags@12@B DD 010H	; std::_Iosb<int>::showpoint
CONST	ENDS
;	COMDAT ?showbase@?$_Iosb@H@std@@2W4_Fmtflags@12@B
CONST	SEGMENT
?showbase@?$_Iosb@H@std@@2W4_Fmtflags@12@B DD 08H	; std::_Iosb<int>::showbase
CONST	ENDS
;	COMDAT ?uppercase@?$_Iosb@H@std@@2W4_Fmtflags@12@B
CONST	SEGMENT
?uppercase@?$_Iosb@H@std@@2W4_Fmtflags@12@B DD 04H	; std::_Iosb<int>::uppercase
CONST	ENDS
;	COMDAT ?unitbuf@?$_Iosb@H@std@@2W4_Fmtflags@12@B
CONST	SEGMENT
?unitbuf@?$_Iosb@H@std@@2W4_Fmtflags@12@B DD 02H	; std::_Iosb<int>::unitbuf
CONST	ENDS
;	COMDAT ?skipws@?$_Iosb@H@std@@2W4_Fmtflags@12@B
CONST	SEGMENT
?skipws@?$_Iosb@H@std@@2W4_Fmtflags@12@B DD 01H		; std::_Iosb<int>::skipws
CONST	ENDS
;	COMDAT ?table_size@?$ctype@D@std@@2IB
CONST	SEGMENT
?table_size@?$ctype@D@std@@2IB DD 0100H			; std::ctype<char>::table_size
CONST	ENDS
;	COMDAT ?none@?$_Locbase@H@std@@2HB
CONST	SEGMENT
?none@?$_Locbase@H@std@@2HB DD 00H			; std::_Locbase<int>::none
CONST	ENDS
;	COMDAT ?all@?$_Locbase@H@std@@2HB
CONST	SEGMENT
?all@?$_Locbase@H@std@@2HB DD 03fH			; std::_Locbase<int>::all
CONST	ENDS
;	COMDAT ?messages@?$_Locbase@H@std@@2HB
CONST	SEGMENT
?messages@?$_Locbase@H@std@@2HB DD 020H			; std::_Locbase<int>::messages
CONST	ENDS
;	COMDAT ?time@?$_Locbase@H@std@@2HB
CONST	SEGMENT
?time@?$_Locbase@H@std@@2HB DD 010H			; std::_Locbase<int>::time
CONST	ENDS
;	COMDAT ?numeric@?$_Locbase@H@std@@2HB
CONST	SEGMENT
?numeric@?$_Locbase@H@std@@2HB DD 08H			; std::_Locbase<int>::numeric
CONST	ENDS
;	COMDAT ?monetary@?$_Locbase@H@std@@2HB
CONST	SEGMENT
?monetary@?$_Locbase@H@std@@2HB DD 04H			; std::_Locbase<int>::monetary
CONST	ENDS
;	COMDAT ?ctype@?$_Locbase@H@std@@2HB
CONST	SEGMENT
?ctype@?$_Locbase@H@std@@2HB DD 02H			; std::_Locbase<int>::ctype
CONST	ENDS
;	COMDAT ?collate@?$_Locbase@H@std@@2HB
CONST	SEGMENT
?collate@?$_Locbase@H@std@@2HB DD 01H			; std::_Locbase<int>::collate
CONST	ENDS
;	COMDAT ?_Rank@?$_Arithmetic_traits@O@std@@2HB
CONST	SEGMENT
?_Rank@?$_Arithmetic_traits@O@std@@2HB DD 09H		; std::_Arithmetic_traits<long double>::_Rank
CONST	ENDS
;	COMDAT ?_Rank@?$_Arithmetic_traits@N@std@@2HB
CONST	SEGMENT
?_Rank@?$_Arithmetic_traits@N@std@@2HB DD 08H		; std::_Arithmetic_traits<double>::_Rank
CONST	ENDS
;	COMDAT ?_Rank@?$_Arithmetic_traits@M@std@@2HB
CONST	SEGMENT
?_Rank@?$_Arithmetic_traits@M@std@@2HB DD 07H		; std::_Arithmetic_traits<float>::_Rank
CONST	ENDS
;	COMDAT ?_Rank@?$_Arithmetic_traits@_K@std@@2HB
CONST	SEGMENT
?_Rank@?$_Arithmetic_traits@_K@std@@2HB DD 06H		; std::_Arithmetic_traits<unsigned __int64>::_Rank
CONST	ENDS
;	COMDAT ?_Rank@?$_Arithmetic_traits@_J@std@@2HB
CONST	SEGMENT
?_Rank@?$_Arithmetic_traits@_J@std@@2HB DD 06H		; std::_Arithmetic_traits<__int64>::_Rank
CONST	ENDS
;	COMDAT ?_Rank@?$_Arithmetic_traits@K@std@@2HB
CONST	SEGMENT
?_Rank@?$_Arithmetic_traits@K@std@@2HB DD 05H		; std::_Arithmetic_traits<unsigned long>::_Rank
CONST	ENDS
;	COMDAT ?_Rank@?$_Arithmetic_traits@J@std@@2HB
CONST	SEGMENT
?_Rank@?$_Arithmetic_traits@J@std@@2HB DD 05H		; std::_Arithmetic_traits<long>::_Rank
CONST	ENDS
;	COMDAT ?_Rank@?$_Arithmetic_traits@I@std@@2HB
CONST	SEGMENT
?_Rank@?$_Arithmetic_traits@I@std@@2HB DD 04H		; std::_Arithmetic_traits<unsigned int>::_Rank
CONST	ENDS
;	COMDAT ?_Rank@?$_Arithmetic_traits@H@std@@2HB
CONST	SEGMENT
?_Rank@?$_Arithmetic_traits@H@std@@2HB DD 04H		; std::_Arithmetic_traits<int>::_Rank
CONST	ENDS
;	COMDAT ?_Rank@?$_Arithmetic_traits@G@std@@2HB
CONST	SEGMENT
?_Rank@?$_Arithmetic_traits@G@std@@2HB DD 03H		; std::_Arithmetic_traits<unsigned short>::_Rank
CONST	ENDS
;	COMDAT ?_Rank@?$_Arithmetic_traits@F@std@@2HB
CONST	SEGMENT
?_Rank@?$_Arithmetic_traits@F@std@@2HB DD 03H		; std::_Arithmetic_traits<short>::_Rank
CONST	ENDS
;	COMDAT ?_Rank@?$_Arithmetic_traits@E@std@@2HB
CONST	SEGMENT
?_Rank@?$_Arithmetic_traits@E@std@@2HB DD 02H		; std::_Arithmetic_traits<unsigned char>::_Rank
CONST	ENDS
;	COMDAT ?_Rank@?$_Arithmetic_traits@C@std@@2HB
CONST	SEGMENT
?_Rank@?$_Arithmetic_traits@C@std@@2HB DD 02H		; std::_Arithmetic_traits<signed char>::_Rank
CONST	ENDS
;	COMDAT ?_Rank@?$_Arithmetic_traits@D@std@@2HB
CONST	SEGMENT
?_Rank@?$_Arithmetic_traits@D@std@@2HB DD 02H		; std::_Arithmetic_traits<char>::_Rank
CONST	ENDS
;	COMDAT ?_Rank@?$_Arithmetic_traits@_N@std@@2HB
CONST	SEGMENT
?_Rank@?$_Arithmetic_traits@_N@std@@2HB DD 01H		; std::_Arithmetic_traits<bool>::_Rank
CONST	ENDS
;	COMDAT ?value@?$integral_constant@I$0A@@tr1@std@@2IB
CONST	SEGMENT
?value@?$integral_constant@I$0A@@tr1@std@@2IB DD 00H	; std::tr1::integral_constant<unsigned int,0>::value
CONST	ENDS
;	COMDAT ?value@?$integral_constant@_N$00@tr1@std@@2_NB
CONST	SEGMENT
?value@?$integral_constant@_N$00@tr1@std@@2_NB DB 01H	; std::tr1::integral_constant<bool,1>::value
CONST	ENDS
;	COMDAT ?value@?$integral_constant@_N$0A@@tr1@std@@2_NB
CONST	SEGMENT
?value@?$integral_constant@_N$0A@@tr1@std@@2_NB DB 00H	; std::tr1::integral_constant<bool,0>::value
CONST	ENDS
;	COMDAT ?min_exponent10@?$numeric_limits@O@std@@2HB
CONST	SEGMENT
?min_exponent10@?$numeric_limits@O@std@@2HB DD 0fffffecdH ; std::numeric_limits<long double>::min_exponent10
CONST	ENDS
;	COMDAT ?min_exponent@?$numeric_limits@O@std@@2HB
CONST	SEGMENT
?min_exponent@?$numeric_limits@O@std@@2HB DD 0fffffc03H	; std::numeric_limits<long double>::min_exponent
CONST	ENDS
;	COMDAT ?max_exponent10@?$numeric_limits@O@std@@2HB
CONST	SEGMENT
?max_exponent10@?$numeric_limits@O@std@@2HB DD 0134H	; std::numeric_limits<long double>::max_exponent10
CONST	ENDS
;	COMDAT ?max_exponent@?$numeric_limits@O@std@@2HB
CONST	SEGMENT
?max_exponent@?$numeric_limits@O@std@@2HB DD 0400H	; std::numeric_limits<long double>::max_exponent
CONST	ENDS
;	COMDAT ?max_digits10@?$numeric_limits@O@std@@2HB
CONST	SEGMENT
?max_digits10@?$numeric_limits@O@std@@2HB DD 011H	; std::numeric_limits<long double>::max_digits10
CONST	ENDS
;	COMDAT ?digits10@?$numeric_limits@O@std@@2HB
CONST	SEGMENT
?digits10@?$numeric_limits@O@std@@2HB DD 0fH		; std::numeric_limits<long double>::digits10
CONST	ENDS
;	COMDAT ?digits@?$numeric_limits@O@std@@2HB
CONST	SEGMENT
?digits@?$numeric_limits@O@std@@2HB DD 035H		; std::numeric_limits<long double>::digits
CONST	ENDS
;	COMDAT ?min_exponent10@?$numeric_limits@N@std@@2HB
CONST	SEGMENT
?min_exponent10@?$numeric_limits@N@std@@2HB DD 0fffffecdH ; std::numeric_limits<double>::min_exponent10
CONST	ENDS
;	COMDAT ?min_exponent@?$numeric_limits@N@std@@2HB
CONST	SEGMENT
?min_exponent@?$numeric_limits@N@std@@2HB DD 0fffffc03H	; std::numeric_limits<double>::min_exponent
CONST	ENDS
;	COMDAT ?max_exponent10@?$numeric_limits@N@std@@2HB
CONST	SEGMENT
?max_exponent10@?$numeric_limits@N@std@@2HB DD 0134H	; std::numeric_limits<double>::max_exponent10
CONST	ENDS
;	COMDAT ?max_exponent@?$numeric_limits@N@std@@2HB
CONST	SEGMENT
?max_exponent@?$numeric_limits@N@std@@2HB DD 0400H	; std::numeric_limits<double>::max_exponent
CONST	ENDS
;	COMDAT ?max_digits10@?$numeric_limits@N@std@@2HB
CONST	SEGMENT
?max_digits10@?$numeric_limits@N@std@@2HB DD 011H	; std::numeric_limits<double>::max_digits10
CONST	ENDS
;	COMDAT ?digits10@?$numeric_limits@N@std@@2HB
CONST	SEGMENT
?digits10@?$numeric_limits@N@std@@2HB DD 0fH		; std::numeric_limits<double>::digits10
CONST	ENDS
;	COMDAT ?digits@?$numeric_limits@N@std@@2HB
CONST	SEGMENT
?digits@?$numeric_limits@N@std@@2HB DD 035H		; std::numeric_limits<double>::digits
CONST	ENDS
;	COMDAT ?min_exponent10@?$numeric_limits@M@std@@2HB
CONST	SEGMENT
?min_exponent10@?$numeric_limits@M@std@@2HB DD 0ffffffdbH ; std::numeric_limits<float>::min_exponent10
CONST	ENDS
;	COMDAT ?min_exponent@?$numeric_limits@M@std@@2HB
CONST	SEGMENT
?min_exponent@?$numeric_limits@M@std@@2HB DD 0ffffff83H	; std::numeric_limits<float>::min_exponent
CONST	ENDS
;	COMDAT ?max_exponent10@?$numeric_limits@M@std@@2HB
CONST	SEGMENT
?max_exponent10@?$numeric_limits@M@std@@2HB DD 026H	; std::numeric_limits<float>::max_exponent10
CONST	ENDS
;	COMDAT ?max_exponent@?$numeric_limits@M@std@@2HB
CONST	SEGMENT
?max_exponent@?$numeric_limits@M@std@@2HB DD 080H	; std::numeric_limits<float>::max_exponent
CONST	ENDS
;	COMDAT ?max_digits10@?$numeric_limits@M@std@@2HB
CONST	SEGMENT
?max_digits10@?$numeric_limits@M@std@@2HB DD 08H	; std::numeric_limits<float>::max_digits10
CONST	ENDS
;	COMDAT ?digits10@?$numeric_limits@M@std@@2HB
CONST	SEGMENT
?digits10@?$numeric_limits@M@std@@2HB DD 06H		; std::numeric_limits<float>::digits10
CONST	ENDS
;	COMDAT ?digits@?$numeric_limits@M@std@@2HB
CONST	SEGMENT
?digits@?$numeric_limits@M@std@@2HB DD 018H		; std::numeric_limits<float>::digits
CONST	ENDS
;	COMDAT ?max_digits10@?$numeric_limits@_K@std@@2HB
CONST	SEGMENT
?max_digits10@?$numeric_limits@_K@std@@2HB DD 015H	; std::numeric_limits<unsigned __int64>::max_digits10
CONST	ENDS
;	COMDAT ?digits10@?$numeric_limits@_K@std@@2HB
CONST	SEGMENT
?digits10@?$numeric_limits@_K@std@@2HB DD 013H		; std::numeric_limits<unsigned __int64>::digits10
CONST	ENDS
;	COMDAT ?digits@?$numeric_limits@_K@std@@2HB
CONST	SEGMENT
?digits@?$numeric_limits@_K@std@@2HB DD 040H		; std::numeric_limits<unsigned __int64>::digits
CONST	ENDS
;	COMDAT ?is_signed@?$numeric_limits@_K@std@@2_NB
CONST	SEGMENT
?is_signed@?$numeric_limits@_K@std@@2_NB DB 00H		; std::numeric_limits<unsigned __int64>::is_signed
CONST	ENDS
;	COMDAT ?max_digits10@?$numeric_limits@_J@std@@2HB
CONST	SEGMENT
?max_digits10@?$numeric_limits@_J@std@@2HB DD 014H	; std::numeric_limits<__int64>::max_digits10
CONST	ENDS
;	COMDAT ?digits10@?$numeric_limits@_J@std@@2HB
CONST	SEGMENT
?digits10@?$numeric_limits@_J@std@@2HB DD 012H		; std::numeric_limits<__int64>::digits10
CONST	ENDS
;	COMDAT ?digits@?$numeric_limits@_J@std@@2HB
CONST	SEGMENT
?digits@?$numeric_limits@_J@std@@2HB DD 03fH		; std::numeric_limits<__int64>::digits
CONST	ENDS
;	COMDAT ?is_signed@?$numeric_limits@_J@std@@2_NB
CONST	SEGMENT
?is_signed@?$numeric_limits@_J@std@@2_NB DB 01H		; std::numeric_limits<__int64>::is_signed
CONST	ENDS
;	COMDAT ?max_digits10@?$numeric_limits@K@std@@2HB
CONST	SEGMENT
?max_digits10@?$numeric_limits@K@std@@2HB DD 0bH	; std::numeric_limits<unsigned long>::max_digits10
CONST	ENDS
;	COMDAT ?digits10@?$numeric_limits@K@std@@2HB
CONST	SEGMENT
?digits10@?$numeric_limits@K@std@@2HB DD 09H		; std::numeric_limits<unsigned long>::digits10
CONST	ENDS
;	COMDAT ?digits@?$numeric_limits@K@std@@2HB
CONST	SEGMENT
?digits@?$numeric_limits@K@std@@2HB DD 020H		; std::numeric_limits<unsigned long>::digits
CONST	ENDS
;	COMDAT ?is_signed@?$numeric_limits@K@std@@2_NB
CONST	SEGMENT
?is_signed@?$numeric_limits@K@std@@2_NB DB 00H		; std::numeric_limits<unsigned long>::is_signed
CONST	ENDS
;	COMDAT ?max_digits10@?$numeric_limits@J@std@@2HB
CONST	SEGMENT
?max_digits10@?$numeric_limits@J@std@@2HB DD 0bH	; std::numeric_limits<long>::max_digits10
CONST	ENDS
;	COMDAT ?digits10@?$numeric_limits@J@std@@2HB
CONST	SEGMENT
?digits10@?$numeric_limits@J@std@@2HB DD 09H		; std::numeric_limits<long>::digits10
CONST	ENDS
;	COMDAT ?digits@?$numeric_limits@J@std@@2HB
CONST	SEGMENT
?digits@?$numeric_limits@J@std@@2HB DD 01fH		; std::numeric_limits<long>::digits
CONST	ENDS
;	COMDAT ?is_signed@?$numeric_limits@J@std@@2_NB
CONST	SEGMENT
?is_signed@?$numeric_limits@J@std@@2_NB DB 01H		; std::numeric_limits<long>::is_signed
CONST	ENDS
;	COMDAT ?max_digits10@?$numeric_limits@I@std@@2HB
CONST	SEGMENT
?max_digits10@?$numeric_limits@I@std@@2HB DD 0bH	; std::numeric_limits<unsigned int>::max_digits10
CONST	ENDS
;	COMDAT ?digits10@?$numeric_limits@I@std@@2HB
CONST	SEGMENT
?digits10@?$numeric_limits@I@std@@2HB DD 09H		; std::numeric_limits<unsigned int>::digits10
CONST	ENDS
;	COMDAT ?digits@?$numeric_limits@I@std@@2HB
CONST	SEGMENT
?digits@?$numeric_limits@I@std@@2HB DD 020H		; std::numeric_limits<unsigned int>::digits
CONST	ENDS
;	COMDAT ?is_signed@?$numeric_limits@I@std@@2_NB
CONST	SEGMENT
?is_signed@?$numeric_limits@I@std@@2_NB DB 00H		; std::numeric_limits<unsigned int>::is_signed
CONST	ENDS
;	COMDAT ?max_digits10@?$numeric_limits@H@std@@2HB
CONST	SEGMENT
?max_digits10@?$numeric_limits@H@std@@2HB DD 0bH	; std::numeric_limits<int>::max_digits10
CONST	ENDS
;	COMDAT ?digits10@?$numeric_limits@H@std@@2HB
CONST	SEGMENT
?digits10@?$numeric_limits@H@std@@2HB DD 09H		; std::numeric_limits<int>::digits10
CONST	ENDS
;	COMDAT ?digits@?$numeric_limits@H@std@@2HB
CONST	SEGMENT
?digits@?$numeric_limits@H@std@@2HB DD 01fH		; std::numeric_limits<int>::digits
CONST	ENDS
;	COMDAT ?is_signed@?$numeric_limits@H@std@@2_NB
CONST	SEGMENT
?is_signed@?$numeric_limits@H@std@@2_NB DB 01H		; std::numeric_limits<int>::is_signed
CONST	ENDS
;	COMDAT ?max_digits10@?$numeric_limits@G@std@@2HB
CONST	SEGMENT
?max_digits10@?$numeric_limits@G@std@@2HB DD 06H	; std::numeric_limits<unsigned short>::max_digits10
CONST	ENDS
;	COMDAT ?digits10@?$numeric_limits@G@std@@2HB
CONST	SEGMENT
?digits10@?$numeric_limits@G@std@@2HB DD 04H		; std::numeric_limits<unsigned short>::digits10
CONST	ENDS
;	COMDAT ?digits@?$numeric_limits@G@std@@2HB
CONST	SEGMENT
?digits@?$numeric_limits@G@std@@2HB DD 010H		; std::numeric_limits<unsigned short>::digits
CONST	ENDS
;	COMDAT ?is_signed@?$numeric_limits@G@std@@2_NB
CONST	SEGMENT
?is_signed@?$numeric_limits@G@std@@2_NB DB 00H		; std::numeric_limits<unsigned short>::is_signed
CONST	ENDS
;	COMDAT ?max_digits10@?$numeric_limits@F@std@@2HB
CONST	SEGMENT
?max_digits10@?$numeric_limits@F@std@@2HB DD 06H	; std::numeric_limits<short>::max_digits10
CONST	ENDS
;	COMDAT ?digits10@?$numeric_limits@F@std@@2HB
CONST	SEGMENT
?digits10@?$numeric_limits@F@std@@2HB DD 04H		; std::numeric_limits<short>::digits10
CONST	ENDS
;	COMDAT ?digits@?$numeric_limits@F@std@@2HB
CONST	SEGMENT
?digits@?$numeric_limits@F@std@@2HB DD 0fH		; std::numeric_limits<short>::digits
CONST	ENDS
;	COMDAT ?is_signed@?$numeric_limits@F@std@@2_NB
CONST	SEGMENT
?is_signed@?$numeric_limits@F@std@@2_NB DB 01H		; std::numeric_limits<short>::is_signed
CONST	ENDS
;	COMDAT ?max_digits10@?$numeric_limits@E@std@@2HB
CONST	SEGMENT
?max_digits10@?$numeric_limits@E@std@@2HB DD 04H	; std::numeric_limits<unsigned char>::max_digits10
CONST	ENDS
;	COMDAT ?digits10@?$numeric_limits@E@std@@2HB
CONST	SEGMENT
?digits10@?$numeric_limits@E@std@@2HB DD 02H		; std::numeric_limits<unsigned char>::digits10
CONST	ENDS
;	COMDAT ?digits@?$numeric_limits@E@std@@2HB
CONST	SEGMENT
?digits@?$numeric_limits@E@std@@2HB DD 08H		; std::numeric_limits<unsigned char>::digits
CONST	ENDS
;	COMDAT ?is_signed@?$numeric_limits@E@std@@2_NB
CONST	SEGMENT
?is_signed@?$numeric_limits@E@std@@2_NB DB 00H		; std::numeric_limits<unsigned char>::is_signed
CONST	ENDS
;	COMDAT ?max_digits10@?$numeric_limits@C@std@@2HB
CONST	SEGMENT
?max_digits10@?$numeric_limits@C@std@@2HB DD 04H	; std::numeric_limits<signed char>::max_digits10
CONST	ENDS
;	COMDAT ?digits10@?$numeric_limits@C@std@@2HB
CONST	SEGMENT
?digits10@?$numeric_limits@C@std@@2HB DD 02H		; std::numeric_limits<signed char>::digits10
CONST	ENDS
;	COMDAT ?digits@?$numeric_limits@C@std@@2HB
CONST	SEGMENT
?digits@?$numeric_limits@C@std@@2HB DD 07H		; std::numeric_limits<signed char>::digits
CONST	ENDS
;	COMDAT ?is_signed@?$numeric_limits@C@std@@2_NB
CONST	SEGMENT
?is_signed@?$numeric_limits@C@std@@2_NB DB 01H		; std::numeric_limits<signed char>::is_signed
CONST	ENDS
;	COMDAT ?max_digits10@?$numeric_limits@_N@std@@2HB
CONST	SEGMENT
?max_digits10@?$numeric_limits@_N@std@@2HB DD 00H	; std::numeric_limits<bool>::max_digits10
CONST	ENDS
;	COMDAT ?digits10@?$numeric_limits@_N@std@@2HB
CONST	SEGMENT
?digits10@?$numeric_limits@_N@std@@2HB DD 00H		; std::numeric_limits<bool>::digits10
CONST	ENDS
;	COMDAT ?digits@?$numeric_limits@_N@std@@2HB
CONST	SEGMENT
?digits@?$numeric_limits@_N@std@@2HB DD 01H		; std::numeric_limits<bool>::digits
CONST	ENDS
;	COMDAT ?is_signed@?$numeric_limits@_N@std@@2_NB
CONST	SEGMENT
?is_signed@?$numeric_limits@_N@std@@2_NB DB 00H		; std::numeric_limits<bool>::is_signed
CONST	ENDS
;	COMDAT ?is_modulo@?$numeric_limits@_N@std@@2_NB
CONST	SEGMENT
?is_modulo@?$numeric_limits@_N@std@@2_NB DB 00H		; std::numeric_limits<bool>::is_modulo
CONST	ENDS
;	COMDAT ?max_digits10@?$numeric_limits@_W@std@@2HB
CONST	SEGMENT
?max_digits10@?$numeric_limits@_W@std@@2HB DD 06H	; std::numeric_limits<wchar_t>::max_digits10
CONST	ENDS
;	COMDAT ?digits10@?$numeric_limits@_W@std@@2HB
CONST	SEGMENT
?digits10@?$numeric_limits@_W@std@@2HB DD 04H		; std::numeric_limits<wchar_t>::digits10
CONST	ENDS
;	COMDAT ?digits@?$numeric_limits@_W@std@@2HB
CONST	SEGMENT
?digits@?$numeric_limits@_W@std@@2HB DD 010H		; std::numeric_limits<wchar_t>::digits
CONST	ENDS
;	COMDAT ?is_signed@?$numeric_limits@_W@std@@2_NB
CONST	SEGMENT
?is_signed@?$numeric_limits@_W@std@@2_NB DB 00H		; std::numeric_limits<wchar_t>::is_signed
CONST	ENDS
;	COMDAT ?max_digits10@?$numeric_limits@D@std@@2HB
CONST	SEGMENT
?max_digits10@?$numeric_limits@D@std@@2HB DD 04H	; std::numeric_limits<char>::max_digits10
CONST	ENDS
;	COMDAT ?digits10@?$numeric_limits@D@std@@2HB
CONST	SEGMENT
?digits10@?$numeric_limits@D@std@@2HB DD 02H		; std::numeric_limits<char>::digits10
CONST	ENDS
;	COMDAT ?digits@?$numeric_limits@D@std@@2HB
CONST	SEGMENT
?digits@?$numeric_limits@D@std@@2HB DD 07H		; std::numeric_limits<char>::digits
CONST	ENDS
;	COMDAT ?is_signed@?$numeric_limits@D@std@@2_NB
CONST	SEGMENT
?is_signed@?$numeric_limits@D@std@@2_NB DB 01H		; std::numeric_limits<char>::is_signed
CONST	ENDS
;	COMDAT ?radix@_Num_float_base@std@@2HB
CONST	SEGMENT
?radix@_Num_float_base@std@@2HB DD 02H			; std::_Num_float_base::radix
CONST	ENDS
;	COMDAT ?round_style@_Num_float_base@std@@2W4float_round_style@2@B
CONST	SEGMENT
?round_style@_Num_float_base@std@@2W4float_round_style@2@B DD 01H ; std::_Num_float_base::round_style
CONST	ENDS
;	COMDAT ?traps@_Num_float_base@std@@2_NB
CONST	SEGMENT
?traps@_Num_float_base@std@@2_NB DB 01H			; std::_Num_float_base::traps
CONST	ENDS
;	COMDAT ?tinyness_before@_Num_float_base@std@@2_NB
CONST	SEGMENT
?tinyness_before@_Num_float_base@std@@2_NB DB 01H	; std::_Num_float_base::tinyness_before
CONST	ENDS
;	COMDAT ?is_specialized@_Num_float_base@std@@2_NB
CONST	SEGMENT
?is_specialized@_Num_float_base@std@@2_NB DB 01H	; std::_Num_float_base::is_specialized
CONST	ENDS
;	COMDAT ?is_signed@_Num_float_base@std@@2_NB
CONST	SEGMENT
?is_signed@_Num_float_base@std@@2_NB DB 01H		; std::_Num_float_base::is_signed
CONST	ENDS
;	COMDAT ?is_modulo@_Num_float_base@std@@2_NB
CONST	SEGMENT
?is_modulo@_Num_float_base@std@@2_NB DB 00H		; std::_Num_float_base::is_modulo
CONST	ENDS
;	COMDAT ?is_integer@_Num_float_base@std@@2_NB
CONST	SEGMENT
?is_integer@_Num_float_base@std@@2_NB DB 00H		; std::_Num_float_base::is_integer
CONST	ENDS
;	COMDAT ?is_iec559@_Num_float_base@std@@2_NB
CONST	SEGMENT
?is_iec559@_Num_float_base@std@@2_NB DB 01H		; std::_Num_float_base::is_iec559
CONST	ENDS
;	COMDAT ?is_exact@_Num_float_base@std@@2_NB
CONST	SEGMENT
?is_exact@_Num_float_base@std@@2_NB DB 00H		; std::_Num_float_base::is_exact
CONST	ENDS
;	COMDAT ?is_bounded@_Num_float_base@std@@2_NB
CONST	SEGMENT
?is_bounded@_Num_float_base@std@@2_NB DB 01H		; std::_Num_float_base::is_bounded
CONST	ENDS
;	COMDAT ?has_signaling_NaN@_Num_float_base@std@@2_NB
CONST	SEGMENT
?has_signaling_NaN@_Num_float_base@std@@2_NB DB 01H	; std::_Num_float_base::has_signaling_NaN
CONST	ENDS
;	COMDAT ?has_quiet_NaN@_Num_float_base@std@@2_NB
CONST	SEGMENT
?has_quiet_NaN@_Num_float_base@std@@2_NB DB 01H		; std::_Num_float_base::has_quiet_NaN
CONST	ENDS
;	COMDAT ?has_infinity@_Num_float_base@std@@2_NB
CONST	SEGMENT
?has_infinity@_Num_float_base@std@@2_NB DB 01H		; std::_Num_float_base::has_infinity
CONST	ENDS
;	COMDAT ?has_denorm_loss@_Num_float_base@std@@2_NB
CONST	SEGMENT
?has_denorm_loss@_Num_float_base@std@@2_NB DB 01H	; std::_Num_float_base::has_denorm_loss
CONST	ENDS
;	COMDAT ?has_denorm@_Num_float_base@std@@2W4float_denorm_style@2@B
CONST	SEGMENT
?has_denorm@_Num_float_base@std@@2W4float_denorm_style@2@B DD 01H ; std::_Num_float_base::has_denorm
CONST	ENDS
;	COMDAT ?radix@_Num_int_base@std@@2HB
CONST	SEGMENT
?radix@_Num_int_base@std@@2HB DD 02H			; std::_Num_int_base::radix
CONST	ENDS
;	COMDAT ?is_specialized@_Num_int_base@std@@2_NB
CONST	SEGMENT
?is_specialized@_Num_int_base@std@@2_NB DB 01H		; std::_Num_int_base::is_specialized
CONST	ENDS
;	COMDAT ?is_modulo@_Num_int_base@std@@2_NB
CONST	SEGMENT
?is_modulo@_Num_int_base@std@@2_NB DB 01H		; std::_Num_int_base::is_modulo
CONST	ENDS
;	COMDAT ?is_integer@_Num_int_base@std@@2_NB
CONST	SEGMENT
?is_integer@_Num_int_base@std@@2_NB DB 01H		; std::_Num_int_base::is_integer
CONST	ENDS
;	COMDAT ?is_exact@_Num_int_base@std@@2_NB
CONST	SEGMENT
?is_exact@_Num_int_base@std@@2_NB DB 01H		; std::_Num_int_base::is_exact
CONST	ENDS
;	COMDAT ?is_bounded@_Num_int_base@std@@2_NB
CONST	SEGMENT
?is_bounded@_Num_int_base@std@@2_NB DB 01H		; std::_Num_int_base::is_bounded
CONST	ENDS
;	COMDAT ?radix@_Num_base@std@@2HB
CONST	SEGMENT
?radix@_Num_base@std@@2HB DD 00H			; std::_Num_base::radix
CONST	ENDS
;	COMDAT ?min_exponent10@_Num_base@std@@2HB
CONST	SEGMENT
?min_exponent10@_Num_base@std@@2HB DD 00H		; std::_Num_base::min_exponent10
CONST	ENDS
;	COMDAT ?min_exponent@_Num_base@std@@2HB
CONST	SEGMENT
?min_exponent@_Num_base@std@@2HB DD 00H			; std::_Num_base::min_exponent
CONST	ENDS
;	COMDAT ?max_exponent10@_Num_base@std@@2HB
CONST	SEGMENT
?max_exponent10@_Num_base@std@@2HB DD 00H		; std::_Num_base::max_exponent10
CONST	ENDS
;	COMDAT ?max_exponent@_Num_base@std@@2HB
CONST	SEGMENT
?max_exponent@_Num_base@std@@2HB DD 00H			; std::_Num_base::max_exponent
CONST	ENDS
;	COMDAT ?max_digits10@_Num_base@std@@2HB
CONST	SEGMENT
?max_digits10@_Num_base@std@@2HB DD 00H			; std::_Num_base::max_digits10
CONST	ENDS
;	COMDAT ?digits10@_Num_base@std@@2HB
CONST	SEGMENT
?digits10@_Num_base@std@@2HB DD 00H			; std::_Num_base::digits10
CONST	ENDS
;	COMDAT ?digits@_Num_base@std@@2HB
CONST	SEGMENT
?digits@_Num_base@std@@2HB DD 00H			; std::_Num_base::digits
CONST	ENDS
;	COMDAT ?round_style@_Num_base@std@@2W4float_round_style@2@B
CONST	SEGMENT
?round_style@_Num_base@std@@2W4float_round_style@2@B DD 00H ; std::_Num_base::round_style
CONST	ENDS
;	COMDAT ?traps@_Num_base@std@@2_NB
CONST	SEGMENT
?traps@_Num_base@std@@2_NB DB 00H			; std::_Num_base::traps
CONST	ENDS
;	COMDAT ?tinyness_before@_Num_base@std@@2_NB
CONST	SEGMENT
?tinyness_before@_Num_base@std@@2_NB DB 00H		; std::_Num_base::tinyness_before
CONST	ENDS
;	COMDAT ?is_specialized@_Num_base@std@@2_NB
CONST	SEGMENT
?is_specialized@_Num_base@std@@2_NB DB 00H		; std::_Num_base::is_specialized
CONST	ENDS
;	COMDAT ?is_signed@_Num_base@std@@2_NB
CONST	SEGMENT
?is_signed@_Num_base@std@@2_NB DB 00H			; std::_Num_base::is_signed
CONST	ENDS
;	COMDAT ?is_modulo@_Num_base@std@@2_NB
CONST	SEGMENT
?is_modulo@_Num_base@std@@2_NB DB 00H			; std::_Num_base::is_modulo
CONST	ENDS
;	COMDAT ?is_integer@_Num_base@std@@2_NB
CONST	SEGMENT
?is_integer@_Num_base@std@@2_NB DB 00H			; std::_Num_base::is_integer
CONST	ENDS
;	COMDAT ?is_iec559@_Num_base@std@@2_NB
CONST	SEGMENT
?is_iec559@_Num_base@std@@2_NB DB 00H			; std::_Num_base::is_iec559
CONST	ENDS
;	COMDAT ?is_exact@_Num_base@std@@2_NB
CONST	SEGMENT
?is_exact@_Num_base@std@@2_NB DB 00H			; std::_Num_base::is_exact
CONST	ENDS
;	COMDAT ?is_bounded@_Num_base@std@@2_NB
CONST	SEGMENT
?is_bounded@_Num_base@std@@2_NB DB 00H			; std::_Num_base::is_bounded
CONST	ENDS
;	COMDAT ?has_signaling_NaN@_Num_base@std@@2_NB
CONST	SEGMENT
?has_signaling_NaN@_Num_base@std@@2_NB DB 00H		; std::_Num_base::has_signaling_NaN
CONST	ENDS
;	COMDAT ?has_quiet_NaN@_Num_base@std@@2_NB
CONST	SEGMENT
?has_quiet_NaN@_Num_base@std@@2_NB DB 00H		; std::_Num_base::has_quiet_NaN
CONST	ENDS
;	COMDAT ?has_infinity@_Num_base@std@@2_NB
CONST	SEGMENT
?has_infinity@_Num_base@std@@2_NB DB 00H		; std::_Num_base::has_infinity
CONST	ENDS
;	COMDAT ?has_denorm_loss@_Num_base@std@@2_NB
CONST	SEGMENT
?has_denorm_loss@_Num_base@std@@2_NB DB 00H		; std::_Num_base::has_denorm_loss
CONST	ENDS
;	COMDAT ?has_denorm@_Num_base@std@@2W4float_denorm_style@2@B
CONST	SEGMENT
?has_denorm@_Num_base@std@@2W4float_denorm_style@2@B DD 00H ; std::_Num_base::has_denorm
CONST	ENDS
PUBLIC	??0Vector2D@@QAE@XZ				; Vector2D::Vector2D
PUBLIC	?GetNavGraph@Raven_Map@@QBEAAV?$SparseGraph@V?$NavGraphNode@PAV?$Trigger@VRaven_Bot@@@@@@VNavGraphEdge@@@@XZ ; Raven_Map::GetNavGraph
PUBLIC	?GetMap@Raven_Game@@QAEQAVRaven_Map@@XZ		; Raven_Game::GetMap
PUBLIC	?GetWorld@Raven_Bot@@QAEQAVRaven_Game@@XZ	; Raven_Bot::GetWorld
PUBLIC	??0Raven_PathPlanner@@QAE@PAVRaven_Bot@@@Z	; Raven_PathPlanner::Raven_PathPlanner
EXTRN	__RTC_CheckEsp:PROC
EXTRN	__RTC_Shutdown:PROC
EXTRN	__RTC_InitBase:PROC
;	COMDAT rtc$TMZ
; File c:\users\alec\desktop\gameaisource\vs2010\buckland_chapter7 to 10_raven\navigation\raven_pathplanner.cpp
rtc$TMZ	SEGMENT
__RTC_Shutdown.rtc$TMZ DD FLAT:__RTC_Shutdown
rtc$TMZ	ENDS
;	COMDAT rtc$IMZ
rtc$IMZ	SEGMENT
__RTC_InitBase.rtc$IMZ DD FLAT:__RTC_InitBase
; Function compile flags: /Odtp /RTCsu
rtc$IMZ	ENDS
_TEXT	SEGMENT
_this$ = -4						; size = 4
_owner$ = 8						; size = 4
??0Raven_PathPlanner@@QAE@PAVRaven_Bot@@@Z PROC		; Raven_PathPlanner::Raven_PathPlanner
; _this$ = ecx

; 27   : {

	push	ebp
	mov	ebp, esp
	push	ecx
	mov	DWORD PTR [ebp-4], -858993460		; ccccccccH
	mov	DWORD PTR _this$[ebp], ecx
	mov	eax, DWORD PTR _this$[ebp]
	mov	ecx, DWORD PTR _owner$[ebp]
	mov	DWORD PTR [eax], ecx
	mov	edx, DWORD PTR _this$[ebp]
	mov	ecx, DWORD PTR [edx]
	call	?GetWorld@Raven_Bot@@QAEQAVRaven_Game@@XZ ; Raven_Bot::GetWorld
	mov	ecx, eax
	call	?GetMap@Raven_Game@@QAEQAVRaven_Map@@XZ	; Raven_Game::GetMap
	mov	ecx, eax
	call	?GetNavGraph@Raven_Map@@QBEAAV?$SparseGraph@V?$NavGraphNode@PAV?$Trigger@VRaven_Bot@@@@@@VNavGraphEdge@@@@XZ ; Raven_Map::GetNavGraph
	mov	ecx, DWORD PTR _this$[ebp]
	mov	DWORD PTR [ecx+8], eax
	mov	edx, DWORD PTR _this$[ebp]
	mov	DWORD PTR [edx+12], 0
	mov	ecx, DWORD PTR _this$[ebp]
	add	ecx, 24					; 00000018H
	call	??0Vector2D@@QAE@XZ			; Vector2D::Vector2D

; 28   : 	cycles = 0;

	mov	eax, DWORD PTR _this$[ebp]
	mov	DWORD PTR [eax+4], 0

; 29   : 	partialComplete = false;

	mov	ecx, DWORD PTR _this$[ebp]
	mov	BYTE PTR [ecx+16], 0

; 30   : }

	mov	eax, DWORD PTR _this$[ebp]
	add	esp, 4
	cmp	ebp, esp
	call	__RTC_CheckEsp
	mov	esp, ebp
	pop	ebp
	ret	4
??0Raven_PathPlanner@@QAE@PAVRaven_Bot@@@Z ENDP		; Raven_PathPlanner::Raven_PathPlanner
_TEXT	ENDS
PUBLIC	__real@0000000000000000
EXTRN	__fltused:DWORD
;	COMDAT __real@0000000000000000
; File c:\users\alec\desktop\gameaisource\vs2010\common\2d\vector2d.h
CONST	SEGMENT
__real@0000000000000000 DQ 00000000000000000r	; 0
; Function compile flags: /Odtp /RTCsu
CONST	ENDS
;	COMDAT ??0Vector2D@@QAE@XZ
_TEXT	SEGMENT
_this$ = -4						; size = 4
??0Vector2D@@QAE@XZ PROC				; Vector2D::Vector2D, COMDAT
; _this$ = ecx

; 24   :   Vector2D():x(0.0),y(0.0){}

	push	ebp
	mov	ebp, esp
	push	ecx
	mov	DWORD PTR [ebp-4], -858993460		; ccccccccH
	mov	DWORD PTR _this$[ebp], ecx
	mov	eax, DWORD PTR _this$[ebp]
	fldz
	fstp	QWORD PTR [eax]
	mov	ecx, DWORD PTR _this$[ebp]
	fldz
	fstp	QWORD PTR [ecx+8]
	mov	eax, DWORD PTR _this$[ebp]
	mov	esp, ebp
	pop	ebp
	ret	0
??0Vector2D@@QAE@XZ ENDP				; Vector2D::Vector2D
; Function compile flags: /Odtp /RTCsu
; File c:\users\alec\desktop\gameaisource\vs2010\buckland_chapter7 to 10_raven\raven_bot.h
_TEXT	ENDS
;	COMDAT ?GetWorld@Raven_Bot@@QAEQAVRaven_Game@@XZ
_TEXT	SEGMENT
_this$ = -4						; size = 4
?GetWorld@Raven_Bot@@QAEQAVRaven_Game@@XZ PROC		; Raven_Bot::GetWorld, COMDAT
; _this$ = ecx

; 264  :   Raven_Game* const                  GetWorld(){return m_pWorld;} 

	push	ebp
	mov	ebp, esp
	push	ecx
	mov	DWORD PTR [ebp-4], -858993460		; ccccccccH
	mov	DWORD PTR _this$[ebp], ecx
	mov	eax, DWORD PTR _this$[ebp]
	mov	eax, DWORD PTR [eax+156]
	mov	esp, ebp
	pop	ebp
	ret	0
?GetWorld@Raven_Bot@@QAEQAVRaven_Game@@XZ ENDP		; Raven_Bot::GetWorld
; Function compile flags: /Odtp /RTCsu
; File c:\users\alec\desktop\gameaisource\vs2010\buckland_chapter7 to 10_raven\raven_map.h
_TEXT	ENDS
;	COMDAT ?GetNavGraph@Raven_Map@@QBEAAV?$SparseGraph@V?$NavGraphNode@PAV?$Trigger@VRaven_Bot@@@@@@VNavGraphEdge@@@@XZ
_TEXT	SEGMENT
_this$ = -4						; size = 4
?GetNavGraph@Raven_Map@@QBEAAV?$SparseGraph@V?$NavGraphNode@PAV?$Trigger@VRaven_Bot@@@@@@VNavGraphEdge@@@@XZ PROC ; Raven_Map::GetNavGraph, COMDAT
; _this$ = ecx

; 116  :   NavGraph&                          GetNavGraph()const{return *m_pNavGraph;}

	push	ebp
	mov	ebp, esp
	push	ecx
	mov	DWORD PTR [ebp-4], -858993460		; ccccccccH
	mov	DWORD PTR _this$[ebp], ecx
	mov	eax, DWORD PTR _this$[ebp]
	mov	eax, DWORD PTR [eax+108]
	mov	esp, ebp
	pop	ebp
	ret	0
?GetNavGraph@Raven_Map@@QBEAAV?$SparseGraph@V?$NavGraphNode@PAV?$Trigger@VRaven_Bot@@@@@@VNavGraphEdge@@@@XZ ENDP ; Raven_Map::GetNavGraph
; Function compile flags: /Odtp /RTCsu
; File c:\users\alec\desktop\gameaisource\vs2010\buckland_chapter7 to 10_raven\raven_game.h
_TEXT	ENDS
;	COMDAT ?GetMap@Raven_Game@@QAEQAVRaven_Map@@XZ
_TEXT	SEGMENT
_this$ = -4						; size = 4
?GetMap@Raven_Game@@QAEQAVRaven_Map@@XZ PROC		; Raven_Game::GetMap, COMDAT
; _this$ = ecx

; 179  :   Raven_Map* const                         GetMap(){return m_pMap;}

	push	ebp
	mov	ebp, esp
	push	ecx
	mov	DWORD PTR [ebp-4], -858993460		; ccccccccH
	mov	DWORD PTR _this$[ebp], ecx
	mov	eax, DWORD PTR _this$[ebp]
	mov	eax, DWORD PTR [eax]
	mov	esp, ebp
	pop	ebp
	ret	0
?GetMap@Raven_Game@@QAEQAVRaven_Map@@XZ ENDP		; Raven_Game::GetMap
_TEXT	ENDS
PUBLIC	?GetReadyForNewSearch@Raven_PathPlanner@@AAEXXZ	; Raven_PathPlanner::GetReadyForNewSearch
PUBLIC	??1Raven_PathPlanner@@QAE@XZ			; Raven_PathPlanner::~Raven_PathPlanner
; Function compile flags: /Odtp /RTCsu
; File c:\users\alec\desktop\gameaisource\vs2010\buckland_chapter7 to 10_raven\navigation\raven_pathplanner.cpp
_TEXT	SEGMENT
_this$ = -4						; size = 4
??1Raven_PathPlanner@@QAE@XZ PROC			; Raven_PathPlanner::~Raven_PathPlanner
; _this$ = ecx

; 35   : {

	push	ebp
	mov	ebp, esp
	push	ecx
	mov	DWORD PTR [ebp-4], -858993460		; ccccccccH
	mov	DWORD PTR _this$[ebp], ecx

; 36   :   GetReadyForNewSearch();

	mov	ecx, DWORD PTR _this$[ebp]
	call	?GetReadyForNewSearch@Raven_PathPlanner@@AAEXXZ ; Raven_PathPlanner::GetReadyForNewSearch

; 37   : }

	add	esp, 4
	cmp	ebp, esp
	call	__RTC_CheckEsp
	mov	esp, ebp
	pop	ebp
	ret	0
??1Raven_PathPlanner@@QAE@XZ ENDP			; Raven_PathPlanner::~Raven_PathPlanner
_TEXT	ENDS
PUBLIC	?UnRegister@?$PathManager@VRaven_PathPlanner@@@@QAEXPAVRaven_PathPlanner@@@Z ; PathManager<Raven_PathPlanner>::UnRegister
PUBLIC	?GetPathManager@Raven_Game@@QAEQAV?$PathManager@VRaven_PathPlanner@@@@XZ ; Raven_Game::GetPathManager
; Function compile flags: /Odtp /RTCsu
_TEXT	SEGMENT
tv77 = -16						; size = 4
$T164397 = -12						; size = 4
$T164396 = -8						; size = 4
_this$ = -4						; size = 4
?GetReadyForNewSearch@Raven_PathPlanner@@AAEXXZ PROC	; Raven_PathPlanner::GetReadyForNewSearch
; _this$ = ecx

; 45   : {

	push	ebp
	mov	ebp, esp
	sub	esp, 16					; 00000010H
	push	esi
	mov	eax, -858993460				; ccccccccH
	mov	DWORD PTR [ebp-16], eax
	mov	DWORD PTR [ebp-12], eax
	mov	DWORD PTR [ebp-8], eax
	mov	DWORD PTR [ebp-4], eax
	mov	DWORD PTR _this$[ebp], ecx

; 46   :   //unregister any existing search with the path manager
; 47   :   m_pOwner->GetWorld()->GetPathManager()->UnRegister(this);

	mov	eax, DWORD PTR _this$[ebp]
	push	eax
	mov	ecx, DWORD PTR _this$[ebp]
	mov	ecx, DWORD PTR [ecx]
	call	?GetWorld@Raven_Bot@@QAEQAVRaven_Game@@XZ ; Raven_Bot::GetWorld
	mov	ecx, eax
	call	?GetPathManager@Raven_Game@@QAEQAV?$PathManager@VRaven_PathPlanner@@@@XZ ; Raven_Game::GetPathManager
	mov	ecx, eax
	call	?UnRegister@?$PathManager@VRaven_PathPlanner@@@@QAEXPAVRaven_PathPlanner@@@Z ; PathManager<Raven_PathPlanner>::UnRegister

; 48   : 
; 49   :   //clean up memory used by any existing search
; 50   :   delete m_pCurrentSearch;    

	mov	edx, DWORD PTR _this$[ebp]
	mov	eax, DWORD PTR [edx+12]
	mov	DWORD PTR $T164397[ebp], eax
	mov	ecx, DWORD PTR $T164397[ebp]
	mov	DWORD PTR $T164396[ebp], ecx
	cmp	DWORD PTR $T164396[ebp], 0
	je	SHORT $LN3@GetReadyFo
	mov	esi, esp
	push	1
	mov	edx, DWORD PTR $T164396[ebp]
	mov	eax, DWORD PTR [edx]
	mov	ecx, DWORD PTR $T164396[ebp]
	mov	edx, DWORD PTR [eax]
	call	edx
	cmp	esi, esp
	call	__RTC_CheckEsp
	mov	DWORD PTR tv77[ebp], eax
	jmp	SHORT $LN4@GetReadyFo
$LN3@GetReadyFo:
	mov	DWORD PTR tv77[ebp], 0
$LN4@GetReadyFo:

; 51   :   m_pCurrentSearch = 0;

	mov	eax, DWORD PTR _this$[ebp]
	mov	DWORD PTR [eax+12], 0

; 52   :   cycles = 0;

	mov	ecx, DWORD PTR _this$[ebp]
	mov	DWORD PTR [ecx+4], 0

; 53   :   partialComplete = false;

	mov	edx, DWORD PTR _this$[ebp]
	mov	BYTE PTR [edx+16], 0

; 54   : }

	pop	esi
	add	esp, 16					; 00000010H
	cmp	ebp, esp
	call	__RTC_CheckEsp
	mov	esp, ebp
	pop	ebp
	ret	0
?GetReadyForNewSearch@Raven_PathPlanner@@AAEXXZ ENDP	; Raven_PathPlanner::GetReadyForNewSearch
; Function compile flags: /Odtp /RTCsu
; File c:\users\alec\desktop\gameaisource\vs2010\buckland_chapter7 to 10_raven\raven_game.h
_TEXT	ENDS
;	COMDAT ?GetPathManager@Raven_Game@@QAEQAV?$PathManager@VRaven_PathPlanner@@@@XZ
_TEXT	SEGMENT
_this$ = -4						; size = 4
?GetPathManager@Raven_Game@@QAEQAV?$PathManager@VRaven_PathPlanner@@@@XZ PROC ; Raven_Game::GetPathManager, COMDAT
; _this$ = ecx

; 181  :   PathManager<Raven_PathPlanner>* const    GetPathManager(){return m_pPathManager;}

	push	ebp
	mov	ebp, esp
	push	ecx
	mov	DWORD PTR [ebp-4], -858993460		; ccccccccH
	mov	DWORD PTR _this$[ebp], ecx
	mov	eax, DWORD PTR _this$[ebp]
	mov	eax, DWORD PTR [eax+40]
	mov	esp, ebp
	pop	ebp
	ret	0
?GetPathManager@Raven_Game@@QAEQAV?$PathManager@VRaven_PathPlanner@@@@XZ ENDP ; Raven_Game::GetPathManager
_TEXT	ENDS
PUBLIC	?Vec2DDistance@@YANABUVector2D@@0@Z		; Vec2DDistance
PUBLIC	?Pos@?$NavGraphNode@PAV?$Trigger@VRaven_Bot@@@@@@QBE?AUVector2D@@XZ ; NavGraphNode<Trigger<Raven_Bot> *>::Pos
PUBLIC	?GetNode@?$SparseGraph@V?$NavGraphNode@PAV?$Trigger@VRaven_Bot@@@@@@VNavGraphEdge@@@@QBEABV?$NavGraphNode@PAV?$Trigger@VRaven_Bot@@@@@@H@Z ; SparseGraph<NavGraphNode<Trigger<Raven_Bot> *>,NavGraphEdge>::GetNode
PUBLIC	?GetClosestNodeToPosition@Raven_PathPlanner@@ABEHUVector2D@@@Z ; Raven_PathPlanner::GetClosestNodeToPosition
PUBLIC	?Pos@BaseGameEntity@@QBE?AUVector2D@@XZ		; BaseGameEntity::Pos
PUBLIC	?GetCostToNode@Raven_PathPlanner@@QBENI@Z	; Raven_PathPlanner::GetCostToNode
EXTRN	?CalculateCostToTravelBetweenNodes@Raven_Map@@QBENHH@Z:PROC ; Raven_Map::CalculateCostToTravelBetweenNodes
; Function compile flags: /Odtp /RTCsu
; File c:\users\alec\desktop\gameaisource\vs2010\buckland_chapter7 to 10_raven\navigation\raven_pathplanner.cpp
_TEXT	SEGMENT
$T164405 = -64						; size = 16
$T164404 = -48						; size = 16
$T164403 = -32						; size = 16
_cost$ = -16						; size = 8
_nd$ = -8						; size = 4
_this$ = -4						; size = 4
_NodeIdx$ = 8						; size = 4
?GetCostToNode@Raven_PathPlanner@@QBENI@Z PROC		; Raven_PathPlanner::GetCostToNode
; _this$ = ecx

; 62   : {

	push	ebp
	mov	ebp, esp
	sub	esp, 64					; 00000040H
	push	edi
	push	ecx
	lea	edi, DWORD PTR [ebp-64]
	mov	ecx, 16					; 00000010H
	mov	eax, -858993460				; ccccccccH
	rep stosd
	pop	ecx
	mov	DWORD PTR _this$[ebp], ecx

; 63   :   //find the closest visible node to the bots position
; 64   :   int nd = GetClosestNodeToPosition(m_pOwner->Pos());

	lea	eax, DWORD PTR $T164403[ebp]
	push	eax
	mov	ecx, DWORD PTR _this$[ebp]
	mov	ecx, DWORD PTR [ecx]
	call	?Pos@BaseGameEntity@@QBE?AUVector2D@@XZ	; BaseGameEntity::Pos
	sub	esp, 16					; 00000010H
	mov	edx, esp
	mov	ecx, DWORD PTR [eax]
	mov	DWORD PTR [edx], ecx
	mov	ecx, DWORD PTR [eax+4]
	mov	DWORD PTR [edx+4], ecx
	mov	ecx, DWORD PTR [eax+8]
	mov	DWORD PTR [edx+8], ecx
	mov	eax, DWORD PTR [eax+12]
	mov	DWORD PTR [edx+12], eax
	mov	ecx, DWORD PTR _this$[ebp]
	call	?GetClosestNodeToPosition@Raven_PathPlanner@@ABEHUVector2D@@@Z ; Raven_PathPlanner::GetClosestNodeToPosition
	mov	DWORD PTR _nd$[ebp], eax

; 65   : 
; 66   :   //add the cost to this node
; 67   :   double cost =Vec2DDistance(m_pOwner->Pos(),
; 68   :                             m_NavGraph.GetNode(nd).Pos());

	lea	ecx, DWORD PTR $T164404[ebp]
	push	ecx
	mov	edx, DWORD PTR _nd$[ebp]
	push	edx
	mov	eax, DWORD PTR _this$[ebp]
	mov	ecx, DWORD PTR [eax+8]
	call	?GetNode@?$SparseGraph@V?$NavGraphNode@PAV?$Trigger@VRaven_Bot@@@@@@VNavGraphEdge@@@@QBEABV?$NavGraphNode@PAV?$Trigger@VRaven_Bot@@@@@@H@Z ; SparseGraph<NavGraphNode<Trigger<Raven_Bot> *>,NavGraphEdge>::GetNode
	mov	ecx, eax
	call	?Pos@?$NavGraphNode@PAV?$Trigger@VRaven_Bot@@@@@@QBE?AUVector2D@@XZ ; NavGraphNode<Trigger<Raven_Bot> *>::Pos
	push	eax
	lea	ecx, DWORD PTR $T164405[ebp]
	push	ecx
	mov	edx, DWORD PTR _this$[ebp]
	mov	ecx, DWORD PTR [edx]
	call	?Pos@BaseGameEntity@@QBE?AUVector2D@@XZ	; BaseGameEntity::Pos
	push	eax
	call	?Vec2DDistance@@YANABUVector2D@@0@Z	; Vec2DDistance
	add	esp, 8
	fstp	QWORD PTR _cost$[ebp]

; 69   : 
; 70   :   //add the cost to the target node and return
; 71   :   return cost + m_pOwner->GetWorld()->GetMap()->CalculateCostToTravelBetweenNodes(nd, NodeIdx);

	mov	eax, DWORD PTR _NodeIdx$[ebp]
	push	eax
	mov	ecx, DWORD PTR _nd$[ebp]
	push	ecx
	mov	edx, DWORD PTR _this$[ebp]
	mov	ecx, DWORD PTR [edx]
	call	?GetWorld@Raven_Bot@@QAEQAVRaven_Game@@XZ ; Raven_Bot::GetWorld
	mov	ecx, eax
	call	?GetMap@Raven_Game@@QAEQAVRaven_Map@@XZ	; Raven_Game::GetMap
	mov	ecx, eax
	call	?CalculateCostToTravelBetweenNodes@Raven_Map@@QBENHH@Z ; Raven_Map::CalculateCostToTravelBetweenNodes
	fadd	QWORD PTR _cost$[ebp]

; 72   : }

	pop	edi
	add	esp, 64					; 00000040H
	cmp	ebp, esp
	call	__RTC_CheckEsp
	mov	esp, ebp
	pop	ebp
	ret	4
?GetCostToNode@Raven_PathPlanner@@QBENI@Z ENDP		; Raven_PathPlanner::GetCostToNode
_TEXT	ENDS
EXTRN	_sqrt:PROC
; Function compile flags: /Odtp /RTCsu
; File c:\users\alec\desktop\gameaisource\vs2010\common\2d\vector2d.h
;	COMDAT ?Vec2DDistance@@YANABUVector2D@@0@Z
_TEXT	SEGMENT
_xSeparation$ = -16					; size = 8
_ySeparation$ = -8					; size = 8
_v1$ = 8						; size = 4
_v2$ = 12						; size = 4
?Vec2DDistance@@YANABUVector2D@@0@Z PROC		; Vec2DDistance, COMDAT

; 274  : {

	push	ebp
	mov	ebp, esp
	sub	esp, 16					; 00000010H
	mov	eax, -858993460				; ccccccccH
	mov	DWORD PTR [ebp-16], eax
	mov	DWORD PTR [ebp-12], eax
	mov	DWORD PTR [ebp-8], eax
	mov	DWORD PTR [ebp-4], eax

; 275  : 
; 276  :   double ySeparation = v2.y - v1.y;

	mov	eax, DWORD PTR _v2$[ebp]
	mov	ecx, DWORD PTR _v1$[ebp]
	fld	QWORD PTR [eax+8]
	fsub	QWORD PTR [ecx+8]
	fstp	QWORD PTR _ySeparation$[ebp]

; 277  :   double xSeparation = v2.x - v1.x;

	mov	edx, DWORD PTR _v2$[ebp]
	mov	eax, DWORD PTR _v1$[ebp]
	fld	QWORD PTR [edx]
	fsub	QWORD PTR [eax]
	fstp	QWORD PTR _xSeparation$[ebp]

; 278  : 
; 279  :   return sqrt(ySeparation*ySeparation + xSeparation*xSeparation);

	fld	QWORD PTR _ySeparation$[ebp]
	fmul	QWORD PTR _ySeparation$[ebp]
	fld	QWORD PTR _xSeparation$[ebp]
	fmul	QWORD PTR _xSeparation$[ebp]
	faddp	ST(1), ST(0)
	sub	esp, 8
	fstp	QWORD PTR [esp]
	call	_sqrt
	add	esp, 8

; 280  : }

	add	esp, 16					; 00000010H
	cmp	ebp, esp
	call	__RTC_CheckEsp
	mov	esp, ebp
	pop	ebp
	ret	0
?Vec2DDistance@@YANABUVector2D@@0@Z ENDP		; Vec2DDistance
; Function compile flags: /Odtp /RTCsu
; File c:\users\alec\desktop\gameaisource\vs2010\common\game\basegameentity.h
_TEXT	ENDS
;	COMDAT ?Pos@BaseGameEntity@@QBE?AUVector2D@@XZ
_TEXT	SEGMENT
_this$ = -4						; size = 4
___$ReturnUdt$ = 8					; size = 4
?Pos@BaseGameEntity@@QBE?AUVector2D@@XZ PROC		; BaseGameEntity::Pos, COMDAT
; _this$ = ecx

; 89   :   Vector2D     Pos()const{return m_vPosition;}

	push	ebp
	mov	ebp, esp
	push	ecx
	mov	DWORD PTR [ebp-4], -858993460		; ccccccccH
	mov	DWORD PTR _this$[ebp], ecx
	mov	eax, DWORD PTR _this$[ebp]
	add	eax, 24					; 00000018H
	mov	ecx, DWORD PTR ___$ReturnUdt$[ebp]
	mov	edx, DWORD PTR [eax]
	mov	DWORD PTR [ecx], edx
	mov	edx, DWORD PTR [eax+4]
	mov	DWORD PTR [ecx+4], edx
	mov	edx, DWORD PTR [eax+8]
	mov	DWORD PTR [ecx+8], edx
	mov	eax, DWORD PTR [eax+12]
	mov	DWORD PTR [ecx+12], eax
	mov	eax, DWORD PTR ___$ReturnUdt$[ebp]
	mov	esp, ebp
	pop	ebp
	ret	4
?Pos@BaseGameEntity@@QBE?AUVector2D@@XZ ENDP		; BaseGameEntity::Pos
_TEXT	ENDS
PUBLIC	?isEqual@@YA_NNN@Z				; isEqual
PUBLIC	?GraphNodeIndex@?$Trigger@VRaven_Bot@@@@QBEHXZ	; Trigger<Raven_Bot>::GraphNodeIndex
PUBLIC	?isActive@?$Trigger@VRaven_Bot@@@@QAE_NXZ	; Trigger<Raven_Bot>::isActive
PUBLIC	?EntityType@BaseGameEntity@@QBEHXZ		; BaseGameEntity::EntityType
PUBLIC	??D?$_List_const_iterator@V?$_List_val@PAV?$Trigger@VRaven_Bot@@@@V?$allocator@PAV?$Trigger@VRaven_Bot@@@@@std@@@std@@@std@@QBEABQAV?$Trigger@VRaven_Bot@@@@XZ ; std::_List_const_iterator<std::_List_val<Trigger<Raven_Bot> *,std::allocator<Trigger<Raven_Bot> *> > >::operator*
PUBLIC	??9?$_List_const_iterator@V?$_List_val@PAV?$Trigger@VRaven_Bot@@@@V?$allocator@PAV?$Trigger@VRaven_Bot@@@@@std@@@std@@@std@@QBE_NABV01@@Z ; std::_List_const_iterator<std::_List_val<Trigger<Raven_Bot> *,std::allocator<Trigger<Raven_Bot> *> > >::operator!=
PUBLIC	?end@?$list@PAV?$Trigger@VRaven_Bot@@@@V?$allocator@PAV?$Trigger@VRaven_Bot@@@@@std@@@std@@QBE?AV?$_List_const_iterator@V?$_List_val@PAV?$Trigger@VRaven_Bot@@@@V?$allocator@PAV?$Trigger@VRaven_Bot@@@@@std@@@std@@@2@XZ ; std::list<Trigger<Raven_Bot> *,std::allocator<Trigger<Raven_Bot> *> >::end
PUBLIC	??E?$_List_const_iterator@V?$_List_val@PAV?$Trigger@VRaven_Bot@@@@V?$allocator@PAV?$Trigger@VRaven_Bot@@@@@std@@@std@@@std@@QAEAAV01@XZ ; std::_List_const_iterator<std::_List_val<Trigger<Raven_Bot> *,std::allocator<Trigger<Raven_Bot> *> > >::operator++
PUBLIC	??1?$_List_const_iterator@V?$_List_val@PAV?$Trigger@VRaven_Bot@@@@V?$allocator@PAV?$Trigger@VRaven_Bot@@@@@std@@@std@@@std@@QAE@XZ ; std::_List_const_iterator<std::_List_val<Trigger<Raven_Bot> *,std::allocator<Trigger<Raven_Bot> *> > >::~_List_const_iterator<std::_List_val<Trigger<Raven_Bot> *,std::allocator<Trigger<Raven_Bot> *> > >
PUBLIC	??4?$_List_const_iterator@V?$_List_val@PAV?$Trigger@VRaven_Bot@@@@V?$allocator@PAV?$Trigger@VRaven_Bot@@@@@std@@@std@@@std@@QAEAAV01@ABV01@@Z ; std::_List_const_iterator<std::_List_val<Trigger<Raven_Bot> *,std::allocator<Trigger<Raven_Bot> *> > >::operator=
PUBLIC	?begin@?$list@PAV?$Trigger@VRaven_Bot@@@@V?$allocator@PAV?$Trigger@VRaven_Bot@@@@@std@@@std@@QBE?AV?$_List_const_iterator@V?$_List_val@PAV?$Trigger@VRaven_Bot@@@@V?$allocator@PAV?$Trigger@VRaven_Bot@@@@@std@@@std@@@2@XZ ; std::list<Trigger<Raven_Bot> *,std::allocator<Trigger<Raven_Bot> *> >::begin
PUBLIC	??0?$_List_const_iterator@V?$_List_val@PAV?$Trigger@VRaven_Bot@@@@V?$allocator@PAV?$Trigger@VRaven_Bot@@@@@std@@@std@@@std@@QAE@XZ ; std::_List_const_iterator<std::_List_val<Trigger<Raven_Bot> *,std::allocator<Trigger<Raven_Bot> *> > >::_List_const_iterator<std::_List_val<Trigger<Raven_Bot> *,std::allocator<Trigger<Raven_Bot> *> > >
PUBLIC	?GetTriggers@Raven_Map@@QBEABV?$list@PAV?$Trigger@VRaven_Bot@@@@V?$allocator@PAV?$Trigger@VRaven_Bot@@@@@std@@@std@@XZ ; Raven_Map::GetTriggers
PUBLIC	__real@bff0000000000000
PUBLIC	?GetCostToClosestItem@Raven_PathPlanner@@QBENI@Z ; Raven_PathPlanner::GetCostToClosestItem
EXTRN	___security_cookie:DWORD
EXTRN	___CxxFrameHandler3:PROC
EXTRN	@__security_check_cookie@4:PROC
EXTRN	@_RTC_CheckStackVars@8:PROC
;	COMDAT __real@bff0000000000000
; File c:\users\alec\desktop\gameaisource\vs2010\buckland_chapter7 to 10_raven\navigation\raven_pathplanner.cpp
CONST	SEGMENT
__real@bff0000000000000 DQ 0bff0000000000000r	; -1
CONST	ENDS
xdata$x	SEGMENT
__unwindtable$?GetCostToClosestItem@Raven_PathPlanner@@QBENI@Z DD 0ffffffffH
	DD	FLAT:__unwindfunclet$?GetCostToClosestItem@Raven_PathPlanner@@QBENI@Z$0
	DD	00H
	DD	FLAT:__unwindfunclet$?GetCostToClosestItem@Raven_PathPlanner@@QBENI@Z$1
	DD	00H
	DD	FLAT:__unwindfunclet$?GetCostToClosestItem@Raven_PathPlanner@@QBENI@Z$2
__ehfuncinfo$?GetCostToClosestItem@Raven_PathPlanner@@QBENI@Z DD 019930522H
	DD	03H
	DD	FLAT:__unwindtable$?GetCostToClosestItem@Raven_PathPlanner@@QBENI@Z
	DD	2 DUP(00H)
	DD	2 DUP(00H)
	DD	00H
	DD	01H
; Function compile flags: /Odtp /RTCsu
xdata$x	ENDS
_TEXT	SEGMENT
tv171 = -136						; size = 4
tv174 = -132						; size = 4
tv169 = -128						; size = 4
tv82 = -124						; size = 4
$T164416 = -120						; size = 8
$T164415 = -112						; size = 8
$T164414 = -104						; size = 12
$T164413 = -89						; size = 1
$T164412 = -88						; size = 12
$T164411 = -76						; size = 16
_cost$144449 = -60					; size = 8
_it$ = -48						; size = 12
_triggers$ = -32					; size = 4
_ClosestSoFar$ = -28					; size = 8
_nd$ = -20						; size = 4
_this$ = -16						; size = 4
__$EHRec$ = -12						; size = 12
_GiverType$ = 8						; size = 4
?GetCostToClosestItem@Raven_PathPlanner@@QBENI@Z PROC	; Raven_PathPlanner::GetCostToClosestItem
; _this$ = ecx

; 81   : {

	push	ebp
	mov	ebp, esp
	push	-1
	push	__ehhandler$?GetCostToClosestItem@Raven_PathPlanner@@QBENI@Z
	mov	eax, DWORD PTR fs:0
	push	eax
	sub	esp, 124				; 0000007cH
	push	edi
	push	ecx
	lea	edi, DWORD PTR [ebp-136]
	mov	ecx, 31					; 0000001fH
	mov	eax, -858993460				; ccccccccH
	rep stosd
	pop	ecx
	mov	eax, DWORD PTR ___security_cookie
	xor	eax, ebp
	push	eax
	lea	eax, DWORD PTR __$EHRec$[ebp]
	mov	DWORD PTR fs:0, eax
	mov	DWORD PTR _this$[ebp], ecx

; 82   :   //find the closest visible node to the bots position
; 83   :   int nd = GetClosestNodeToPosition(m_pOwner->Pos());

	lea	eax, DWORD PTR $T164411[ebp]
	push	eax
	mov	ecx, DWORD PTR _this$[ebp]
	mov	ecx, DWORD PTR [ecx]
	call	?Pos@BaseGameEntity@@QBE?AUVector2D@@XZ	; BaseGameEntity::Pos
	sub	esp, 16					; 00000010H
	mov	edx, esp
	mov	ecx, DWORD PTR [eax]
	mov	DWORD PTR [edx], ecx
	mov	ecx, DWORD PTR [eax+4]
	mov	DWORD PTR [edx+4], ecx
	mov	ecx, DWORD PTR [eax+8]
	mov	DWORD PTR [edx+8], ecx
	mov	eax, DWORD PTR [eax+12]
	mov	DWORD PTR [edx+12], eax
	mov	ecx, DWORD PTR _this$[ebp]
	call	?GetClosestNodeToPosition@Raven_PathPlanner@@ABEHUVector2D@@@Z ; Raven_PathPlanner::GetClosestNodeToPosition
	mov	DWORD PTR _nd$[ebp], eax

; 84   : 
; 85   :   //if no closest node found return failure
; 86   :   if (nd == invalid_node_index) return -1;

	cmp	DWORD PTR _nd$[ebp], -1
	jne	SHORT $LN7@GetCostToC
	fld	QWORD PTR __real@bff0000000000000
	jmp	$LN8@GetCostToC
$LN7@GetCostToC:

; 87   : 
; 88   :   double ClosestSoFar = MaxDouble;

	fld	QWORD PTR _MaxDouble
	fstp	QWORD PTR _ClosestSoFar$[ebp]

; 89   : 
; 90   :   //iterate through all the triggers to find the closest *active* trigger of 
; 91   :   //type GiverType
; 92   :   const Raven_Map::TriggerSystem::TriggerList& triggers = m_pOwner->GetWorld()->GetMap()->GetTriggers();

	mov	ecx, DWORD PTR _this$[ebp]
	mov	ecx, DWORD PTR [ecx]
	call	?GetWorld@Raven_Bot@@QAEQAVRaven_Game@@XZ ; Raven_Bot::GetWorld
	mov	ecx, eax
	call	?GetMap@Raven_Game@@QAEQAVRaven_Map@@XZ	; Raven_Game::GetMap
	mov	ecx, eax
	call	?GetTriggers@Raven_Map@@QBEABV?$list@PAV?$Trigger@VRaven_Bot@@@@V?$allocator@PAV?$Trigger@VRaven_Bot@@@@@std@@@std@@XZ ; Raven_Map::GetTriggers
	mov	DWORD PTR _triggers$[ebp], eax

; 93   : 
; 94   :   Raven_Map::TriggerSystem::TriggerList::const_iterator it;

	lea	ecx, DWORD PTR _it$[ebp]
	call	??0?$_List_const_iterator@V?$_List_val@PAV?$Trigger@VRaven_Bot@@@@V?$allocator@PAV?$Trigger@VRaven_Bot@@@@@std@@@std@@@std@@QAE@XZ ; std::_List_const_iterator<std::_List_val<Trigger<Raven_Bot> *,std::allocator<Trigger<Raven_Bot> *> > >::_List_const_iterator<std::_List_val<Trigger<Raven_Bot> *,std::allocator<Trigger<Raven_Bot> *> > >
	mov	DWORD PTR __$EHRec$[ebp+8], 0

; 95   :   for (it = triggers.begin(); it != triggers.end(); ++it)

	lea	edx, DWORD PTR $T164412[ebp]
	push	edx
	mov	ecx, DWORD PTR _triggers$[ebp]
	call	?begin@?$list@PAV?$Trigger@VRaven_Bot@@@@V?$allocator@PAV?$Trigger@VRaven_Bot@@@@@std@@@std@@QBE?AV?$_List_const_iterator@V?$_List_val@PAV?$Trigger@VRaven_Bot@@@@V?$allocator@PAV?$Trigger@VRaven_Bot@@@@@std@@@std@@@2@XZ ; std::list<Trigger<Raven_Bot> *,std::allocator<Trigger<Raven_Bot> *> >::begin
	mov	DWORD PTR tv82[ebp], eax
	mov	eax, DWORD PTR tv82[ebp]
	mov	DWORD PTR tv169[ebp], eax
	mov	BYTE PTR __$EHRec$[ebp+8], 1
	mov	ecx, DWORD PTR tv169[ebp]
	push	ecx
	lea	ecx, DWORD PTR _it$[ebp]
	call	??4?$_List_const_iterator@V?$_List_val@PAV?$Trigger@VRaven_Bot@@@@V?$allocator@PAV?$Trigger@VRaven_Bot@@@@@std@@@std@@@std@@QAEAAV01@ABV01@@Z
	mov	BYTE PTR __$EHRec$[ebp+8], 0
	lea	ecx, DWORD PTR $T164412[ebp]
	call	??1?$_List_const_iterator@V?$_List_val@PAV?$Trigger@VRaven_Bot@@@@V?$allocator@PAV?$Trigger@VRaven_Bot@@@@@std@@@std@@@std@@QAE@XZ
	jmp	SHORT $LN6@GetCostToC
$LN5@GetCostToC:
	lea	ecx, DWORD PTR _it$[ebp]
	call	??E?$_List_const_iterator@V?$_List_val@PAV?$Trigger@VRaven_Bot@@@@V?$allocator@PAV?$Trigger@VRaven_Bot@@@@@std@@@std@@@std@@QAEAAV01@XZ ; std::_List_const_iterator<std::_List_val<Trigger<Raven_Bot> *,std::allocator<Trigger<Raven_Bot> *> > >::operator++
$LN6@GetCostToC:
	lea	edx, DWORD PTR $T164414[ebp]
	push	edx
	mov	ecx, DWORD PTR _triggers$[ebp]
	call	?end@?$list@PAV?$Trigger@VRaven_Bot@@@@V?$allocator@PAV?$Trigger@VRaven_Bot@@@@@std@@@std@@QBE?AV?$_List_const_iterator@V?$_List_val@PAV?$Trigger@VRaven_Bot@@@@V?$allocator@PAV?$Trigger@VRaven_Bot@@@@@std@@@std@@@2@XZ ; std::list<Trigger<Raven_Bot> *,std::allocator<Trigger<Raven_Bot> *> >::end
	mov	DWORD PTR tv174[ebp], eax
	mov	eax, DWORD PTR tv174[ebp]
	mov	DWORD PTR tv171[ebp], eax
	mov	BYTE PTR __$EHRec$[ebp+8], 2
	mov	ecx, DWORD PTR tv171[ebp]
	push	ecx
	lea	ecx, DWORD PTR _it$[ebp]
	call	??9?$_List_const_iterator@V?$_List_val@PAV?$Trigger@VRaven_Bot@@@@V?$allocator@PAV?$Trigger@VRaven_Bot@@@@@std@@@std@@@std@@QBE_NABV01@@Z ; std::_List_const_iterator<std::_List_val<Trigger<Raven_Bot> *,std::allocator<Trigger<Raven_Bot> *> > >::operator!=
	mov	BYTE PTR $T164413[ebp], al
	mov	BYTE PTR __$EHRec$[ebp+8], 0
	lea	ecx, DWORD PTR $T164414[ebp]
	call	??1?$_List_const_iterator@V?$_List_val@PAV?$Trigger@VRaven_Bot@@@@V?$allocator@PAV?$Trigger@VRaven_Bot@@@@@std@@@std@@@std@@QAE@XZ
	movzx	edx, BYTE PTR $T164413[ebp]
	test	edx, edx
	je	SHORT $LN4@GetCostToC

; 96   :   {
; 97   :     if ( ((*it)->EntityType() == GiverType) && (*it)->isActive())

	lea	ecx, DWORD PTR _it$[ebp]
	call	??D?$_List_const_iterator@V?$_List_val@PAV?$Trigger@VRaven_Bot@@@@V?$allocator@PAV?$Trigger@VRaven_Bot@@@@@std@@@std@@@std@@QBEABQAV?$Trigger@VRaven_Bot@@@@XZ ; std::_List_const_iterator<std::_List_val<Trigger<Raven_Bot> *,std::allocator<Trigger<Raven_Bot> *> > >::operator*
	mov	ecx, DWORD PTR [eax]
	call	?EntityType@BaseGameEntity@@QBEHXZ	; BaseGameEntity::EntityType
	cmp	eax, DWORD PTR _GiverType$[ebp]
	jne	SHORT $LN2@GetCostToC
	lea	ecx, DWORD PTR _it$[ebp]
	call	??D?$_List_const_iterator@V?$_List_val@PAV?$Trigger@VRaven_Bot@@@@V?$allocator@PAV?$Trigger@VRaven_Bot@@@@@std@@@std@@@std@@QBEABQAV?$Trigger@VRaven_Bot@@@@XZ ; std::_List_const_iterator<std::_List_val<Trigger<Raven_Bot> *,std::allocator<Trigger<Raven_Bot> *> > >::operator*
	mov	ecx, DWORD PTR [eax]
	call	?isActive@?$Trigger@VRaven_Bot@@@@QAE_NXZ ; Trigger<Raven_Bot>::isActive
	movzx	eax, al
	test	eax, eax
	je	SHORT $LN2@GetCostToC

; 98   :     {
; 99   :       double cost = 
; 100  :       m_pOwner->GetWorld()->GetMap()->CalculateCostToTravelBetweenNodes(nd,
; 101  :                                                       (*it)->GraphNodeIndex());

	lea	ecx, DWORD PTR _it$[ebp]
	call	??D?$_List_const_iterator@V?$_List_val@PAV?$Trigger@VRaven_Bot@@@@V?$allocator@PAV?$Trigger@VRaven_Bot@@@@@std@@@std@@@std@@QBEABQAV?$Trigger@VRaven_Bot@@@@XZ ; std::_List_const_iterator<std::_List_val<Trigger<Raven_Bot> *,std::allocator<Trigger<Raven_Bot> *> > >::operator*
	mov	ecx, DWORD PTR [eax]
	call	?GraphNodeIndex@?$Trigger@VRaven_Bot@@@@QBEHXZ ; Trigger<Raven_Bot>::GraphNodeIndex
	push	eax
	mov	ecx, DWORD PTR _nd$[ebp]
	push	ecx
	mov	edx, DWORD PTR _this$[ebp]
	mov	ecx, DWORD PTR [edx]
	call	?GetWorld@Raven_Bot@@QAEQAVRaven_Game@@XZ ; Raven_Bot::GetWorld
	mov	ecx, eax
	call	?GetMap@Raven_Game@@QAEQAVRaven_Map@@XZ	; Raven_Game::GetMap
	mov	ecx, eax
	call	?CalculateCostToTravelBetweenNodes@Raven_Map@@QBENHH@Z ; Raven_Map::CalculateCostToTravelBetweenNodes
	fstp	QWORD PTR _cost$144449[ebp]

; 102  : 
; 103  :       if (cost < ClosestSoFar)

	fld	QWORD PTR _ClosestSoFar$[ebp]
	fcomp	QWORD PTR _cost$144449[ebp]
	fnstsw	ax
	test	ah, 65					; 00000041H
	jne	SHORT $LN2@GetCostToC

; 104  :       {
; 105  :         ClosestSoFar = cost;

	fld	QWORD PTR _cost$144449[ebp]
	fstp	QWORD PTR _ClosestSoFar$[ebp]
$LN2@GetCostToC:

; 106  :       }
; 107  :     }
; 108  :   }

	jmp	$LN5@GetCostToC
$LN4@GetCostToC:

; 109  : 
; 110  :   //return a negative value if no active trigger of the type found
; 111  :   if (isEqual(ClosestSoFar, MaxDouble))

	sub	esp, 8
	fld	QWORD PTR _MaxDouble
	fstp	QWORD PTR [esp]
	sub	esp, 8
	fld	QWORD PTR _ClosestSoFar$[ebp]
	fstp	QWORD PTR [esp]
	call	?isEqual@@YA_NNN@Z			; isEqual
	add	esp, 16					; 00000010H
	movzx	eax, al
	test	eax, eax
	je	SHORT $LN1@GetCostToC

; 112  :   {
; 113  :     return -1;

	fld	QWORD PTR __real@bff0000000000000
	fstp	QWORD PTR $T164415[ebp]
	mov	DWORD PTR __$EHRec$[ebp+8], -1
	lea	ecx, DWORD PTR _it$[ebp]
	call	??1?$_List_const_iterator@V?$_List_val@PAV?$Trigger@VRaven_Bot@@@@V?$allocator@PAV?$Trigger@VRaven_Bot@@@@@std@@@std@@@std@@QAE@XZ
	fld	QWORD PTR $T164415[ebp]
	jmp	SHORT $LN8@GetCostToC
$LN1@GetCostToC:

; 114  :   }
; 115  : 
; 116  :   return ClosestSoFar;

	fld	QWORD PTR _ClosestSoFar$[ebp]
	fstp	QWORD PTR $T164416[ebp]
	mov	DWORD PTR __$EHRec$[ebp+8], -1
	lea	ecx, DWORD PTR _it$[ebp]
	call	??1?$_List_const_iterator@V?$_List_val@PAV?$Trigger@VRaven_Bot@@@@V?$allocator@PAV?$Trigger@VRaven_Bot@@@@@std@@@std@@@std@@QAE@XZ
	fld	QWORD PTR $T164416[ebp]
$LN8@GetCostToC:

; 117  : }

	push	edx
	mov	ecx, ebp
	push	eax
	lea	edx, DWORD PTR $LN16@GetCostToC
	call	@_RTC_CheckStackVars@8
	pop	eax
	pop	edx
	mov	ecx, DWORD PTR __$EHRec$[ebp]
	mov	DWORD PTR fs:0, ecx
	pop	ecx
	pop	edi
	add	esp, 136				; 00000088H
	cmp	ebp, esp
	call	__RTC_CheckEsp
	mov	esp, ebp
	pop	ebp
	ret	4
	npad	2
$LN16@GetCostToC:
	DD	1
	DD	$LN15@GetCostToC
$LN15@GetCostToC:
	DD	-48					; ffffffd0H
	DD	12					; 0000000cH
	DD	$LN13@GetCostToC
$LN13@GetCostToC:
	DB	105					; 00000069H
	DB	116					; 00000074H
	DB	0
_TEXT	ENDS
text$x	SEGMENT
__unwindfunclet$?GetCostToClosestItem@Raven_PathPlanner@@QBENI@Z$0:
	lea	ecx, DWORD PTR _it$[ebp]
	jmp	??1?$_List_const_iterator@V?$_List_val@PAV?$Trigger@VRaven_Bot@@@@V?$allocator@PAV?$Trigger@VRaven_Bot@@@@@std@@@std@@@std@@QAE@XZ
__unwindfunclet$?GetCostToClosestItem@Raven_PathPlanner@@QBENI@Z$1:
	lea	ecx, DWORD PTR $T164412[ebp]
	jmp	??1?$_List_const_iterator@V?$_List_val@PAV?$Trigger@VRaven_Bot@@@@V?$allocator@PAV?$Trigger@VRaven_Bot@@@@@std@@@std@@@std@@QAE@XZ
__unwindfunclet$?GetCostToClosestItem@Raven_PathPlanner@@QBENI@Z$2:
	lea	ecx, DWORD PTR $T164414[ebp]
	jmp	??1?$_List_const_iterator@V?$_List_val@PAV?$Trigger@VRaven_Bot@@@@V?$allocator@PAV?$Trigger@VRaven_Bot@@@@@std@@@std@@@std@@QAE@XZ
__ehhandler$?GetCostToClosestItem@Raven_PathPlanner@@QBENI@Z:
	mov	edx, DWORD PTR [esp+8]
	lea	eax, DWORD PTR [edx+12]
	mov	ecx, DWORD PTR [edx-132]
	xor	ecx, eax
	call	@__security_check_cookie@4
	mov	eax, OFFSET __ehfuncinfo$?GetCostToClosestItem@Raven_PathPlanner@@QBENI@Z
	jmp	___CxxFrameHandler3
text$x	ENDS
?GetCostToClosestItem@Raven_PathPlanner@@QBENI@Z ENDP	; Raven_PathPlanner::GetCostToClosestItem
PUBLIC	__real@3d719799812dea11
EXTRN	_fabs:PROC
;	COMDAT __real@3d719799812dea11
; File c:\users\alec\desktop\gameaisource\vs2010\common\misc\utils.h
CONST	SEGMENT
__real@3d719799812dea11 DQ 03d719799812dea11r	; 1e-012
; Function compile flags: /Odtp /RTCsu
CONST	ENDS
;	COMDAT ?isEqual@@YA_NNN@Z
_TEXT	SEGMENT
_a$ = 8							; size = 8
_b$ = 16						; size = 8
?isEqual@@YA_NNN@Z PROC					; isEqual, COMDAT

; 236  : {

	push	ebp
	mov	ebp, esp

; 237  :   if (fabs(a-b) < 1E-12)

	fld	QWORD PTR _a$[ebp]
	fsub	QWORD PTR _b$[ebp]
	sub	esp, 8
	fstp	QWORD PTR [esp]
	call	_fabs
	add	esp, 8
	fcomp	QWORD PTR __real@3d719799812dea11
	fnstsw	ax
	test	ah, 5
	jp	SHORT $LN1@isEqual

; 238  :   {
; 239  :     return true;

	mov	al, 1
	jmp	SHORT $LN2@isEqual
$LN1@isEqual:

; 240  :   }
; 241  : 
; 242  :   return false;

	xor	al, al
$LN2@isEqual:

; 243  : }

	cmp	ebp, esp
	call	__RTC_CheckEsp
	pop	ebp
	ret	0
?isEqual@@YA_NNN@Z ENDP					; isEqual
; Function compile flags: /Odtp /RTCsu
; File c:\users\alec\desktop\gameaisource\vs2010\common\game\basegameentity.h
_TEXT	ENDS
;	COMDAT ?EntityType@BaseGameEntity@@QBEHXZ
_TEXT	SEGMENT
_this$ = -4						; size = 4
?EntityType@BaseGameEntity@@QBEHXZ PROC			; BaseGameEntity::EntityType, COMDAT
; _this$ = ecx

; 104  :   int          EntityType()const{return m_iType;}

	push	ebp
	mov	ebp, esp
	push	ecx
	mov	DWORD PTR [ebp-4], -858993460		; ccccccccH
	mov	DWORD PTR _this$[ebp], ecx
	mov	eax, DWORD PTR _this$[ebp]
	mov	eax, DWORD PTR [eax+12]
	mov	esp, ebp
	pop	ebp
	ret	0
?EntityType@BaseGameEntity@@QBEHXZ ENDP			; BaseGameEntity::EntityType
_TEXT	ENDS
PUBLIC	?GetTriggers@?$TriggerSystem@V?$Trigger@VRaven_Bot@@@@@@QBEABV?$list@PAV?$Trigger@VRaven_Bot@@@@V?$allocator@PAV?$Trigger@VRaven_Bot@@@@@std@@@std@@XZ ; TriggerSystem<Trigger<Raven_Bot> >::GetTriggers
; Function compile flags: /Odtp /RTCsu
; File c:\users\alec\desktop\gameaisource\vs2010\buckland_chapter7 to 10_raven\raven_map.h
;	COMDAT ?GetTriggers@Raven_Map@@QBEABV?$list@PAV?$Trigger@VRaven_Bot@@@@V?$allocator@PAV?$Trigger@VRaven_Bot@@@@@std@@@std@@XZ
_TEXT	SEGMENT
_this$ = -4						; size = 4
?GetTriggers@Raven_Map@@QBEABV?$list@PAV?$Trigger@VRaven_Bot@@@@V?$allocator@PAV?$Trigger@VRaven_Bot@@@@@std@@@std@@XZ PROC ; Raven_Map::GetTriggers, COMDAT
; _this$ = ecx

; 114  :   const Raven_Map::TriggerSystem::TriggerList&  GetTriggers()const{return m_TriggerSystem.GetTriggers();}

	push	ebp
	mov	ebp, esp
	push	ecx
	mov	DWORD PTR [ebp-4], -858993460		; ccccccccH
	mov	DWORD PTR _this$[ebp], ecx
	mov	ecx, DWORD PTR _this$[ebp]
	add	ecx, 20					; 00000014H
	call	?GetTriggers@?$TriggerSystem@V?$Trigger@VRaven_Bot@@@@@@QBEABV?$list@PAV?$Trigger@VRaven_Bot@@@@V?$allocator@PAV?$Trigger@VRaven_Bot@@@@@std@@@std@@XZ ; TriggerSystem<Trigger<Raven_Bot> >::GetTriggers
	add	esp, 4
	cmp	ebp, esp
	call	__RTC_CheckEsp
	mov	esp, ebp
	pop	ebp
	ret	0
?GetTriggers@Raven_Map@@QBEABV?$list@PAV?$Trigger@VRaven_Bot@@@@V?$allocator@PAV?$Trigger@VRaven_Bot@@@@@std@@@std@@XZ ENDP ; Raven_Map::GetTriggers
_TEXT	ENDS
PUBLIC	??1?$_List_unchecked_const_iterator@V?$_List_val@PAV?$Trigger@VRaven_Bot@@@@V?$allocator@PAV?$Trigger@VRaven_Bot@@@@@std@@@std@@U_Iterator_base12@2@@std@@QAE@XZ ; std::_List_unchecked_const_iterator<std::_List_val<Trigger<Raven_Bot> *,std::allocator<Trigger<Raven_Bot> *> >,std::_Iterator_base12>::~_List_unchecked_const_iterator<std::_List_val<Trigger<Raven_Bot> *,std::allocator<Trigger<Raven_Bot> *> >,std::_Iterator_base12>
; Function compile flags: /Odtp /RTCsu
;	COMDAT ??1?$_List_const_iterator@V?$_List_val@PAV?$Trigger@VRaven_Bot@@@@V?$allocator@PAV?$Trigger@VRaven_Bot@@@@@std@@@std@@@std@@QAE@XZ
_TEXT	SEGMENT
_this$ = -4						; size = 4
??1?$_List_const_iterator@V?$_List_val@PAV?$Trigger@VRaven_Bot@@@@V?$allocator@PAV?$Trigger@VRaven_Bot@@@@@std@@@std@@@std@@QAE@XZ PROC ; std::_List_const_iterator<std::_List_val<Trigger<Raven_Bot> *,std::allocator<Trigger<Raven_Bot> *> > >::~_List_const_iterator<std::_List_val<Trigger<Raven_Bot> *,std::allocator<Trigger<Raven_Bot> *> > >, COMDAT
; _this$ = ecx
	push	ebp
	mov	ebp, esp
	push	ecx
	mov	DWORD PTR [ebp-4], -858993460		; ccccccccH
	mov	DWORD PTR _this$[ebp], ecx
	mov	ecx, DWORD PTR _this$[ebp]
	call	??1?$_List_unchecked_const_iterator@V?$_List_val@PAV?$Trigger@VRaven_Bot@@@@V?$allocator@PAV?$Trigger@VRaven_Bot@@@@@std@@@std@@U_Iterator_base12@2@@std@@QAE@XZ
	add	esp, 4
	cmp	ebp, esp
	call	__RTC_CheckEsp
	mov	esp, ebp
	pop	ebp
	ret	0
??1?$_List_const_iterator@V?$_List_val@PAV?$Trigger@VRaven_Bot@@@@V?$allocator@PAV?$Trigger@VRaven_Bot@@@@@std@@@std@@@std@@QAE@XZ ENDP ; std::_List_const_iterator<std::_List_val<Trigger<Raven_Bot> *,std::allocator<Trigger<Raven_Bot> *> > >::~_List_const_iterator<std::_List_val<Trigger<Raven_Bot> *,std::allocator<Trigger<Raven_Bot> *> > >
_TEXT	ENDS
PUBLIC	??4?$_List_unchecked_const_iterator@V?$_List_val@PAV?$Trigger@VRaven_Bot@@@@V?$allocator@PAV?$Trigger@VRaven_Bot@@@@@std@@@std@@U_Iterator_base12@2@@std@@QAEAAV01@ABV01@@Z ; std::_List_unchecked_const_iterator<std::_List_val<Trigger<Raven_Bot> *,std::allocator<Trigger<Raven_Bot> *> >,std::_Iterator_base12>::operator=
; Function compile flags: /Odtp /RTCsu
;	COMDAT ??4?$_List_const_iterator@V?$_List_val@PAV?$Trigger@VRaven_Bot@@@@V?$allocator@PAV?$Trigger@VRaven_Bot@@@@@std@@@std@@@std@@QAEAAV01@ABV01@@Z
_TEXT	SEGMENT
_this$ = -4						; size = 4
___that$ = 8						; size = 4
??4?$_List_const_iterator@V?$_List_val@PAV?$Trigger@VRaven_Bot@@@@V?$allocator@PAV?$Trigger@VRaven_Bot@@@@@std@@@std@@@std@@QAEAAV01@ABV01@@Z PROC ; std::_List_const_iterator<std::_List_val<Trigger<Raven_Bot> *,std::allocator<Trigger<Raven_Bot> *> > >::operator=, COMDAT
; _this$ = ecx
	push	ebp
	mov	ebp, esp
	push	ecx
	mov	DWORD PTR [ebp-4], -858993460		; ccccccccH
	mov	DWORD PTR _this$[ebp], ecx
	mov	eax, DWORD PTR ___that$[ebp]
	push	eax
	mov	ecx, DWORD PTR _this$[ebp]
	call	??4?$_List_unchecked_const_iterator@V?$_List_val@PAV?$Trigger@VRaven_Bot@@@@V?$allocator@PAV?$Trigger@VRaven_Bot@@@@@std@@@std@@U_Iterator_base12@2@@std@@QAEAAV01@ABV01@@Z
	mov	eax, DWORD PTR _this$[ebp]
	add	esp, 4
	cmp	ebp, esp
	call	__RTC_CheckEsp
	mov	esp, ebp
	pop	ebp
	ret	4
??4?$_List_const_iterator@V?$_List_val@PAV?$Trigger@VRaven_Bot@@@@V?$allocator@PAV?$Trigger@VRaven_Bot@@@@@std@@@std@@@std@@QAEAAV01@ABV01@@Z ENDP ; std::_List_const_iterator<std::_List_val<Trigger<Raven_Bot> *,std::allocator<Trigger<Raven_Bot> *> > >::operator=
_TEXT	ENDS
PUBLIC	??1?$_Iterator012@Ubidirectional_iterator_tag@std@@PAV?$Trigger@VRaven_Bot@@@@HPBQAV3@ABQAV3@U_Iterator_base12@2@@std@@QAE@XZ ; std::_Iterator012<std::bidirectional_iterator_tag,Trigger<Raven_Bot> *,int,Trigger<Raven_Bot> * const *,Trigger<Raven_Bot> * const &,std::_Iterator_base12>::~_Iterator012<std::bidirectional_iterator_tag,Trigger<Raven_Bot> *,int,Trigger<Raven_Bot> * const *,Trigger<Raven_Bot> * const &,std::_Iterator_base12>
; Function compile flags: /Odtp /RTCsu
;	COMDAT ??1?$_List_unchecked_const_iterator@V?$_List_val@PAV?$Trigger@VRaven_Bot@@@@V?$allocator@PAV?$Trigger@VRaven_Bot@@@@@std@@@std@@U_Iterator_base12@2@@std@@QAE@XZ
_TEXT	SEGMENT
_this$ = -4						; size = 4
??1?$_List_unchecked_const_iterator@V?$_List_val@PAV?$Trigger@VRaven_Bot@@@@V?$allocator@PAV?$Trigger@VRaven_Bot@@@@@std@@@std@@U_Iterator_base12@2@@std@@QAE@XZ PROC ; std::_List_unchecked_const_iterator<std::_List_val<Trigger<Raven_Bot> *,std::allocator<Trigger<Raven_Bot> *> >,std::_Iterator_base12>::~_List_unchecked_const_iterator<std::_List_val<Trigger<Raven_Bot> *,std::allocator<Trigger<Raven_Bot> *> >,std::_Iterator_base12>, COMDAT
; _this$ = ecx
	push	ebp
	mov	ebp, esp
	push	ecx
	mov	DWORD PTR [ebp-4], -858993460		; ccccccccH
	mov	DWORD PTR _this$[ebp], ecx
	mov	ecx, DWORD PTR _this$[ebp]
	call	??1?$_Iterator012@Ubidirectional_iterator_tag@std@@PAV?$Trigger@VRaven_Bot@@@@HPBQAV3@ABQAV3@U_Iterator_base12@2@@std@@QAE@XZ
	add	esp, 4
	cmp	ebp, esp
	call	__RTC_CheckEsp
	mov	esp, ebp
	pop	ebp
	ret	0
??1?$_List_unchecked_const_iterator@V?$_List_val@PAV?$Trigger@VRaven_Bot@@@@V?$allocator@PAV?$Trigger@VRaven_Bot@@@@@std@@@std@@U_Iterator_base12@2@@std@@QAE@XZ ENDP ; std::_List_unchecked_const_iterator<std::_List_val<Trigger<Raven_Bot> *,std::allocator<Trigger<Raven_Bot> *> >,std::_Iterator_base12>::~_List_unchecked_const_iterator<std::_List_val<Trigger<Raven_Bot> *,std::allocator<Trigger<Raven_Bot> *> >,std::_Iterator_base12>
_TEXT	ENDS
PUBLIC	??4?$_Iterator012@Ubidirectional_iterator_tag@std@@PAV?$Trigger@VRaven_Bot@@@@HPBQAV3@ABQAV3@U_Iterator_base12@2@@std@@QAEAAU01@ABU01@@Z ; std::_Iterator012<std::bidirectional_iterator_tag,Trigger<Raven_Bot> *,int,Trigger<Raven_Bot> * const *,Trigger<Raven_Bot> * const &,std::_Iterator_base12>::operator=
; Function compile flags: /Odtp /RTCsu
;	COMDAT ??4?$_List_unchecked_const_iterator@V?$_List_val@PAV?$Trigger@VRaven_Bot@@@@V?$allocator@PAV?$Trigger@VRaven_Bot@@@@@std@@@std@@U_Iterator_base12@2@@std@@QAEAAV01@ABV01@@Z
_TEXT	SEGMENT
_this$ = -4						; size = 4
___that$ = 8						; size = 4
??4?$_List_unchecked_const_iterator@V?$_List_val@PAV?$Trigger@VRaven_Bot@@@@V?$allocator@PAV?$Trigger@VRaven_Bot@@@@@std@@@std@@U_Iterator_base12@2@@std@@QAEAAV01@ABV01@@Z PROC ; std::_List_unchecked_const_iterator<std::_List_val<Trigger<Raven_Bot> *,std::allocator<Trigger<Raven_Bot> *> >,std::_Iterator_base12>::operator=, COMDAT
; _this$ = ecx
	push	ebp
	mov	ebp, esp
	push	ecx
	mov	DWORD PTR [ebp-4], -858993460		; ccccccccH
	mov	DWORD PTR _this$[ebp], ecx
	mov	eax, DWORD PTR ___that$[ebp]
	push	eax
	mov	ecx, DWORD PTR _this$[ebp]
	call	??4?$_Iterator012@Ubidirectional_iterator_tag@std@@PAV?$Trigger@VRaven_Bot@@@@HPBQAV3@ABQAV3@U_Iterator_base12@2@@std@@QAEAAU01@ABU01@@Z
	mov	ecx, DWORD PTR _this$[ebp]
	mov	edx, DWORD PTR ___that$[ebp]
	mov	eax, DWORD PTR [edx+8]
	mov	DWORD PTR [ecx+8], eax
	mov	eax, DWORD PTR _this$[ebp]
	add	esp, 4
	cmp	ebp, esp
	call	__RTC_CheckEsp
	mov	esp, ebp
	pop	ebp
	ret	4
??4?$_List_unchecked_const_iterator@V?$_List_val@PAV?$Trigger@VRaven_Bot@@@@V?$allocator@PAV?$Trigger@VRaven_Bot@@@@@std@@@std@@U_Iterator_base12@2@@std@@QAEAAV01@ABV01@@Z ENDP ; std::_List_unchecked_const_iterator<std::_List_val<Trigger<Raven_Bot> *,std::allocator<Trigger<Raven_Bot> *> >,std::_Iterator_base12>::operator=
_TEXT	ENDS
PUBLIC	??1_Iterator_base12@std@@QAE@XZ			; std::_Iterator_base12::~_Iterator_base12
; Function compile flags: /Odtp /RTCsu
;	COMDAT ??1?$_Iterator012@Ubidirectional_iterator_tag@std@@PAV?$Trigger@VRaven_Bot@@@@HPBQAV3@ABQAV3@U_Iterator_base12@2@@std@@QAE@XZ
_TEXT	SEGMENT
_this$ = -4						; size = 4
??1?$_Iterator012@Ubidirectional_iterator_tag@std@@PAV?$Trigger@VRaven_Bot@@@@HPBQAV3@ABQAV3@U_Iterator_base12@2@@std@@QAE@XZ PROC ; std::_Iterator012<std::bidirectional_iterator_tag,Trigger<Raven_Bot> *,int,Trigger<Raven_Bot> * const *,Trigger<Raven_Bot> * const &,std::_Iterator_base12>::~_Iterator012<std::bidirectional_iterator_tag,Trigger<Raven_Bot> *,int,Trigger<Raven_Bot> * const *,Trigger<Raven_Bot> * const &,std::_Iterator_base12>, COMDAT
; _this$ = ecx
	push	ebp
	mov	ebp, esp
	push	ecx
	mov	DWORD PTR [ebp-4], -858993460		; ccccccccH
	mov	DWORD PTR _this$[ebp], ecx
	mov	ecx, DWORD PTR _this$[ebp]
	call	??1_Iterator_base12@std@@QAE@XZ		; std::_Iterator_base12::~_Iterator_base12
	add	esp, 4
	cmp	ebp, esp
	call	__RTC_CheckEsp
	mov	esp, ebp
	pop	ebp
	ret	0
??1?$_Iterator012@Ubidirectional_iterator_tag@std@@PAV?$Trigger@VRaven_Bot@@@@HPBQAV3@ABQAV3@U_Iterator_base12@2@@std@@QAE@XZ ENDP ; std::_Iterator012<std::bidirectional_iterator_tag,Trigger<Raven_Bot> *,int,Trigger<Raven_Bot> * const *,Trigger<Raven_Bot> * const &,std::_Iterator_base12>::~_Iterator012<std::bidirectional_iterator_tag,Trigger<Raven_Bot> *,int,Trigger<Raven_Bot> * const *,Trigger<Raven_Bot> * const &,std::_Iterator_base12>
_TEXT	ENDS
PUBLIC	?_Orphan_me@_Iterator_base12@std@@QAEXXZ	; std::_Iterator_base12::_Orphan_me
EXTRN	??1_Lockit@std@@QAE@XZ:PROC			; std::_Lockit::~_Lockit
EXTRN	??0_Lockit@std@@QAE@H@Z:PROC			; std::_Lockit::_Lockit
;	COMDAT xdata$x
; File c:\program files (x86)\microsoft visual studio 10.0\vc\include\xutility
xdata$x	SEGMENT
__unwindtable$??1_Iterator_base12@std@@QAE@XZ DD 0ffffffffH
	DD	FLAT:__unwindfunclet$??1_Iterator_base12@std@@QAE@XZ$0
__ehfuncinfo$??1_Iterator_base12@std@@QAE@XZ DD 019930522H
	DD	01H
	DD	FLAT:__unwindtable$??1_Iterator_base12@std@@QAE@XZ
	DD	2 DUP(00H)
	DD	2 DUP(00H)
	DD	00H
	DD	01H
; Function compile flags: /Odtp /RTCsu
xdata$x	ENDS
;	COMDAT ??1_Iterator_base12@std@@QAE@XZ
_TEXT	SEGMENT
__Lock$ = -24						; size = 4
_this$ = -16						; size = 4
__$EHRec$ = -12						; size = 12
??1_Iterator_base12@std@@QAE@XZ PROC			; std::_Iterator_base12::~_Iterator_base12, COMDAT
; _this$ = ecx

; 128  : 		{	// destroy the iterator

	push	ebp
	mov	ebp, esp
	push	-1
	push	__ehhandler$??1_Iterator_base12@std@@QAE@XZ
	mov	eax, DWORD PTR fs:0
	push	eax
	sub	esp, 16					; 00000010H
	mov	eax, -858993460				; ccccccccH
	mov	DWORD PTR [ebp-28], eax
	mov	DWORD PTR [ebp-24], eax
	mov	DWORD PTR [ebp-20], eax
	mov	DWORD PTR [ebp-16], eax
	mov	eax, DWORD PTR ___security_cookie
	xor	eax, ebp
	push	eax
	lea	eax, DWORD PTR __$EHRec$[ebp]
	mov	DWORD PTR fs:0, eax
	mov	DWORD PTR _this$[ebp], ecx

; 129  :  #if _ITERATOR_DEBUG_LEVEL == 2
; 130  : 		_Lockit _Lock(_LOCK_DEBUG);

	push	3
	lea	ecx, DWORD PTR __Lock$[ebp]
	call	??0_Lockit@std@@QAE@H@Z			; std::_Lockit::_Lockit
	mov	DWORD PTR __$EHRec$[ebp+8], 0

; 131  : 		_Orphan_me();

	mov	ecx, DWORD PTR _this$[ebp]
	call	?_Orphan_me@_Iterator_base12@std@@QAEXXZ ; std::_Iterator_base12::_Orphan_me

; 132  :  #endif /* _ITERATOR_DEBUG_LEVEL == 2 */
; 133  : 		}

	mov	DWORD PTR __$EHRec$[ebp+8], -1
	lea	ecx, DWORD PTR __Lock$[ebp]
	call	??1_Lockit@std@@QAE@XZ			; std::_Lockit::~_Lockit
	push	edx
	mov	ecx, ebp
	push	eax
	lea	edx, DWORD PTR $LN7@Iterator_b
	call	@_RTC_CheckStackVars@8
	pop	eax
	pop	edx
	mov	ecx, DWORD PTR __$EHRec$[ebp]
	mov	DWORD PTR fs:0, ecx
	pop	ecx
	add	esp, 28					; 0000001cH
	cmp	ebp, esp
	call	__RTC_CheckEsp
	mov	esp, ebp
	pop	ebp
	ret	0
	npad	1
$LN7@Iterator_b:
	DD	1
	DD	$LN6@Iterator_b
$LN6@Iterator_b:
	DD	-24					; ffffffe8H
	DD	4
	DD	$LN4@Iterator_b
$LN4@Iterator_b:
	DB	95					; 0000005fH
	DB	76					; 0000004cH
	DB	111					; 0000006fH
	DB	99					; 00000063H
	DB	107					; 0000006bH
	DB	0
_TEXT	ENDS
;	COMDAT text$x
text$x	SEGMENT
__unwindfunclet$??1_Iterator_base12@std@@QAE@XZ$0:
	lea	ecx, DWORD PTR __Lock$[ebp]
	jmp	??1_Lockit@std@@QAE@XZ			; std::_Lockit::~_Lockit
__ehhandler$??1_Iterator_base12@std@@QAE@XZ:
	mov	edx, DWORD PTR [esp+8]
	lea	eax, DWORD PTR [edx+12]
	mov	ecx, DWORD PTR [edx-20]
	xor	ecx, eax
	call	@__security_check_cookie@4
	mov	eax, OFFSET __ehfuncinfo$??1_Iterator_base12@std@@QAE@XZ
	jmp	___CxxFrameHandler3
text$x	ENDS
??1_Iterator_base12@std@@QAE@XZ ENDP			; std::_Iterator_base12::~_Iterator_base12
PUBLIC	??_C@_1DC@POOIKBAO@?$AAI?$AAT?$AAE?$AAR?$AAA?$AAT?$AAO?$AAR?$AA?5?$AAL?$AAI?$AAS?$AAT?$AA?5?$AAC?$AAO?$AAR?$AAR?$AAU?$AAP?$AAT?$AAE?$AAD?$AA?$CB?$AA?$AA@ ; `string'
PUBLIC	??_C@_1JA@HPGAGILB@?$AAC?$AA?3?$AA?2?$AAP?$AAr?$AAo?$AAg?$AAr?$AAa?$AAm?$AA?5?$AAF?$AAi?$AAl?$AAe?$AAs?$AA?5?$AA?$CI?$AAx?$AA8?$AA6?$AA?$CJ?$AA?2?$AAM?$AAi?$AAc?$AAr?$AAo?$AAs?$AAo?$AAf?$AAt@ ; `string'
EXTRN	?_Debug_message@std@@YAXPB_W0I@Z:PROC		; std::_Debug_message
;	COMDAT ??_C@_1DC@POOIKBAO@?$AAI?$AAT?$AAE?$AAR?$AAA?$AAT?$AAO?$AAR?$AA?5?$AAL?$AAI?$AAS?$AAT?$AA?5?$AAC?$AAO?$AAR?$AAR?$AAU?$AAP?$AAT?$AAE?$AAD?$AA?$CB?$AA?$AA@
CONST	SEGMENT
??_C@_1DC@POOIKBAO@?$AAI?$AAT?$AAE?$AAR?$AAA?$AAT?$AAO?$AAR?$AA?5?$AAL?$AAI?$AAS?$AAT?$AA?5?$AAC?$AAO?$AAR?$AAR?$AAU?$AAP?$AAT?$AAE?$AAD?$AA?$CB?$AA?$AA@ DB 'I'
	DB	00H, 'T', 00H, 'E', 00H, 'R', 00H, 'A', 00H, 'T', 00H, 'O', 00H
	DB	'R', 00H, ' ', 00H, 'L', 00H, 'I', 00H, 'S', 00H, 'T', 00H, ' '
	DB	00H, 'C', 00H, 'O', 00H, 'R', 00H, 'R', 00H, 'U', 00H, 'P', 00H
	DB	'T', 00H, 'E', 00H, 'D', 00H, '!', 00H, 00H, 00H ; `string'
CONST	ENDS
;	COMDAT ??_C@_1JA@HPGAGILB@?$AAC?$AA?3?$AA?2?$AAP?$AAr?$AAo?$AAg?$AAr?$AAa?$AAm?$AA?5?$AAF?$AAi?$AAl?$AAe?$AAs?$AA?5?$AA?$CI?$AAx?$AA8?$AA6?$AA?$CJ?$AA?2?$AAM?$AAi?$AAc?$AAr?$AAo?$AAs?$AAo?$AAf?$AAt@
CONST	SEGMENT
??_C@_1JA@HPGAGILB@?$AAC?$AA?3?$AA?2?$AAP?$AAr?$AAo?$AAg?$AAr?$AAa?$AAm?$AA?5?$AAF?$AAi?$AAl?$AAe?$AAs?$AA?5?$AA?$CI?$AAx?$AA8?$AA6?$AA?$CJ?$AA?2?$AAM?$AAi?$AAc?$AAr?$AAo?$AAs?$AAo?$AAf?$AAt@ DB 'C'
	DB	00H, ':', 00H, '\', 00H, 'P', 00H, 'r', 00H, 'o', 00H, 'g', 00H
	DB	'r', 00H, 'a', 00H, 'm', 00H, ' ', 00H, 'F', 00H, 'i', 00H, 'l'
	DB	00H, 'e', 00H, 's', 00H, ' ', 00H, '(', 00H, 'x', 00H, '8', 00H
	DB	'6', 00H, ')', 00H, '\', 00H, 'M', 00H, 'i', 00H, 'c', 00H, 'r'
	DB	00H, 'o', 00H, 's', 00H, 'o', 00H, 'f', 00H, 't', 00H, ' ', 00H
	DB	'V', 00H, 'i', 00H, 's', 00H, 'u', 00H, 'a', 00H, 'l', 00H, ' '
	DB	00H, 'S', 00H, 't', 00H, 'u', 00H, 'd', 00H, 'i', 00H, 'o', 00H
	DB	' ', 00H, '1', 00H, '0', 00H, '.', 00H, '0', 00H, '\', 00H, 'V'
	DB	00H, 'C', 00H, '\', 00H, 'i', 00H, 'n', 00H, 'c', 00H, 'l', 00H
	DB	'u', 00H, 'd', 00H, 'e', 00H, '\', 00H, 'x', 00H, 'u', 00H, 't'
	DB	00H, 'i', 00H, 'l', 00H, 'i', 00H, 't', 00H, 'y', 00H, 00H, 00H ; `string'
; Function compile flags: /Odtp /RTCsu
CONST	ENDS
;	COMDAT ?_Orphan_me@_Iterator_base12@std@@QAEXXZ
_TEXT	SEGMENT
__Pnext$15151 = -8					; size = 4
_this$ = -4						; size = 4
?_Orphan_me@_Iterator_base12@std@@QAEXXZ PROC		; std::_Iterator_base12::_Orphan_me, COMDAT
; _this$ = ecx

; 172  : 		{	// cut ties with parent

	push	ebp
	mov	ebp, esp
	sub	esp, 8
	mov	DWORD PTR [ebp-8], -858993460		; ccccccccH
	mov	DWORD PTR [ebp-4], -858993460		; ccccccccH
	mov	DWORD PTR _this$[ebp], ecx

; 173  :  #if _ITERATOR_DEBUG_LEVEL == 2
; 174  : 		if (_Myproxy != 0)

	mov	eax, DWORD PTR _this$[ebp]
	cmp	DWORD PTR [eax], 0
	je	SHORT $LN5@Orphan_me

; 175  : 			{	// adopted, remove self from list
; 176  : 			_Iterator_base12 **_Pnext = &_Myproxy->_Myfirstiter;

	mov	ecx, DWORD PTR _this$[ebp]
	mov	edx, DWORD PTR [ecx]
	add	edx, 4
	mov	DWORD PTR __Pnext$15151[ebp], edx
$LN3@Orphan_me:

; 177  : 			while (*_Pnext != 0 && *_Pnext != this)

	mov	eax, DWORD PTR __Pnext$15151[ebp]
	cmp	DWORD PTR [eax], 0
	je	SHORT $LN2@Orphan_me
	mov	ecx, DWORD PTR __Pnext$15151[ebp]
	mov	edx, DWORD PTR [ecx]
	cmp	edx, DWORD PTR _this$[ebp]
	je	SHORT $LN2@Orphan_me

; 178  : 				_Pnext = &(*_Pnext)->_Mynextiter;

	mov	eax, DWORD PTR __Pnext$15151[ebp]
	mov	ecx, DWORD PTR [eax]
	add	ecx, 4
	mov	DWORD PTR __Pnext$15151[ebp], ecx
	jmp	SHORT $LN3@Orphan_me
$LN2@Orphan_me:

; 179  : 
; 180  : 			if (*_Pnext == 0)

	mov	edx, DWORD PTR __Pnext$15151[ebp]
	cmp	DWORD PTR [edx], 0
	jne	SHORT $LN1@Orphan_me

; 181  : 				_DEBUG_ERROR("ITERATOR LIST CORRUPTED!");

	push	181					; 000000b5H
	push	OFFSET ??_C@_1JA@HPGAGILB@?$AAC?$AA?3?$AA?2?$AAP?$AAr?$AAo?$AAg?$AAr?$AAa?$AAm?$AA?5?$AAF?$AAi?$AAl?$AAe?$AAs?$AA?5?$AA?$CI?$AAx?$AA8?$AA6?$AA?$CJ?$AA?2?$AAM?$AAi?$AAc?$AAr?$AAo?$AAs?$AAo?$AAf?$AAt@
	push	OFFSET ??_C@_1DC@POOIKBAO@?$AAI?$AAT?$AAE?$AAR?$AAA?$AAT?$AAO?$AAR?$AA?5?$AAL?$AAI?$AAS?$AAT?$AA?5?$AAC?$AAO?$AAR?$AAR?$AAU?$AAP?$AAT?$AAE?$AAD?$AA?$CB?$AA?$AA@
	call	?_Debug_message@std@@YAXPB_W0I@Z	; std::_Debug_message
	add	esp, 12					; 0000000cH
$LN1@Orphan_me:

; 182  : 			*_Pnext = _Mynextiter;

	mov	eax, DWORD PTR __Pnext$15151[ebp]
	mov	ecx, DWORD PTR _this$[ebp]
	mov	edx, DWORD PTR [ecx+4]
	mov	DWORD PTR [eax], edx

; 183  : 			_Myproxy = 0;

	mov	eax, DWORD PTR _this$[ebp]
	mov	DWORD PTR [eax], 0
$LN5@Orphan_me:

; 184  : 			}
; 185  :  #endif /* _ITERATOR_DEBUG_LEVEL == 2 */
; 186  : 		}

	add	esp, 8
	cmp	ebp, esp
	call	__RTC_CheckEsp
	mov	esp, ebp
	pop	ebp
	ret	0
?_Orphan_me@_Iterator_base12@std@@QAEXXZ ENDP		; std::_Iterator_base12::_Orphan_me
_TEXT	ENDS
PUBLIC	??4_Iterator_base12@std@@QAEAAU01@ABU01@@Z	; std::_Iterator_base12::operator=
; Function compile flags: /Odtp /RTCsu
;	COMDAT ??4?$_Iterator012@Ubidirectional_iterator_tag@std@@PAV?$Trigger@VRaven_Bot@@@@HPBQAV3@ABQAV3@U_Iterator_base12@2@@std@@QAEAAU01@ABU01@@Z
_TEXT	SEGMENT
_this$ = -4						; size = 4
___that$ = 8						; size = 4
??4?$_Iterator012@Ubidirectional_iterator_tag@std@@PAV?$Trigger@VRaven_Bot@@@@HPBQAV3@ABQAV3@U_Iterator_base12@2@@std@@QAEAAU01@ABU01@@Z PROC ; std::_Iterator012<std::bidirectional_iterator_tag,Trigger<Raven_Bot> *,int,Trigger<Raven_Bot> * const *,Trigger<Raven_Bot> * const &,std::_Iterator_base12>::operator=, COMDAT
; _this$ = ecx
	push	ebp
	mov	ebp, esp
	push	ecx
	mov	DWORD PTR [ebp-4], -858993460		; ccccccccH
	mov	DWORD PTR _this$[ebp], ecx
	mov	eax, DWORD PTR ___that$[ebp]
	push	eax
	mov	ecx, DWORD PTR _this$[ebp]
	call	??4_Iterator_base12@std@@QAEAAU01@ABU01@@Z ; std::_Iterator_base12::operator=
	mov	eax, DWORD PTR _this$[ebp]
	add	esp, 4
	cmp	ebp, esp
	call	__RTC_CheckEsp
	mov	esp, ebp
	pop	ebp
	ret	4
??4?$_Iterator012@Ubidirectional_iterator_tag@std@@PAV?$Trigger@VRaven_Bot@@@@HPBQAV3@ABQAV3@U_Iterator_base12@2@@std@@QAEAAU01@ABU01@@Z ENDP ; std::_Iterator012<std::bidirectional_iterator_tag,Trigger<Raven_Bot> *,int,Trigger<Raven_Bot> * const *,Trigger<Raven_Bot> * const &,std::_Iterator_base12>::operator=
_TEXT	ENDS
PUBLIC	?_Adopt@_Iterator_base12@std@@QAEXPBU_Container_base12@2@@Z ; std::_Iterator_base12::_Adopt
; Function compile flags: /Odtp /RTCsu
;	COMDAT ??4_Iterator_base12@std@@QAEAAU01@ABU01@@Z
_TEXT	SEGMENT
_this$ = -4						; size = 4
__Right$ = 8						; size = 4
??4_Iterator_base12@std@@QAEAAU01@ABU01@@Z PROC		; std::_Iterator_base12::operator=, COMDAT
; _this$ = ecx

; 121  : 		{	// assign an iterator

	push	ebp
	mov	ebp, esp
	push	ecx
	mov	DWORD PTR [ebp-4], -858993460		; ccccccccH
	mov	DWORD PTR _this$[ebp], ecx

; 122  : 		if (_Myproxy != _Right._Myproxy)

	mov	eax, DWORD PTR _this$[ebp]
	mov	ecx, DWORD PTR __Right$[ebp]
	mov	edx, DWORD PTR [eax]
	cmp	edx, DWORD PTR [ecx]
	je	SHORT $LN1@operator

; 123  : 			_Adopt(_Right._Myproxy->_Mycont);

	mov	eax, DWORD PTR __Right$[ebp]
	mov	ecx, DWORD PTR [eax]
	mov	edx, DWORD PTR [ecx]
	push	edx
	mov	ecx, DWORD PTR _this$[ebp]
	call	?_Adopt@_Iterator_base12@std@@QAEXPBU_Container_base12@2@@Z ; std::_Iterator_base12::_Adopt
$LN1@operator:

; 124  : 		return (*this);

	mov	eax, DWORD PTR _this$[ebp]

; 125  : 		}

	add	esp, 4
	cmp	ebp, esp
	call	__RTC_CheckEsp
	mov	esp, ebp
	pop	ebp
	ret	4
??4_Iterator_base12@std@@QAEAAU01@ABU01@@Z ENDP		; std::_Iterator_base12::operator=
_TEXT	ENDS
;	COMDAT xdata$x
xdata$x	SEGMENT
__unwindtable$?_Adopt@_Iterator_base12@std@@QAEXPBU_Container_base12@2@@Z DD 0ffffffffH
	DD	FLAT:__unwindfunclet$?_Adopt@_Iterator_base12@std@@QAEXPBU_Container_base12@2@@Z$0
__ehfuncinfo$?_Adopt@_Iterator_base12@std@@QAEXPBU_Container_base12@2@@Z DD 019930522H
	DD	01H
	DD	FLAT:__unwindtable$?_Adopt@_Iterator_base12@std@@QAEXPBU_Container_base12@2@@Z
	DD	2 DUP(00H)
	DD	2 DUP(00H)
	DD	00H
	DD	01H
; Function compile flags: /Odtp /RTCsu
xdata$x	ENDS
;	COMDAT ?_Adopt@_Iterator_base12@std@@QAEXPBU_Container_base12@2@@Z
_TEXT	SEGMENT
__Lock$15141 = -28					; size = 4
__Parent_proxy$15139 = -20				; size = 4
_this$ = -16						; size = 4
__$EHRec$ = -12						; size = 12
__Parent$ = 8						; size = 4
?_Adopt@_Iterator_base12@std@@QAEXPBU_Container_base12@2@@Z PROC ; std::_Iterator_base12::_Adopt, COMDAT
; _this$ = ecx

; 136  : 		{	// adopt this iterator by parent

	push	ebp
	mov	ebp, esp
	push	-1
	push	__ehhandler$?_Adopt@_Iterator_base12@std@@QAEXPBU_Container_base12@2@@Z
	mov	eax, DWORD PTR fs:0
	push	eax
	sub	esp, 20					; 00000014H
	mov	eax, -858993460				; ccccccccH
	mov	DWORD PTR [ebp-32], eax
	mov	DWORD PTR [ebp-28], eax
	mov	DWORD PTR [ebp-24], eax
	mov	DWORD PTR [ebp-20], eax
	mov	DWORD PTR [ebp-16], eax
	mov	eax, DWORD PTR ___security_cookie
	xor	eax, ebp
	push	eax
	lea	eax, DWORD PTR __$EHRec$[ebp]
	mov	DWORD PTR fs:0, eax
	mov	DWORD PTR _this$[ebp], ecx

; 137  : 		if (_Parent != 0)

	cmp	DWORD PTR __Parent$[ebp], 0
	je	SHORT $LN3@Adopt

; 138  : 			{	// have a parent, do adoption
; 139  : 			_Container_proxy *_Parent_proxy = _Parent->_Myproxy;

	mov	eax, DWORD PTR __Parent$[ebp]
	mov	ecx, DWORD PTR [eax]
	mov	DWORD PTR __Parent_proxy$15139[ebp], ecx

; 140  : 
; 141  :  #if _ITERATOR_DEBUG_LEVEL == 2
; 142  : 			if (_Myproxy != _Parent_proxy)

	mov	edx, DWORD PTR _this$[ebp]
	mov	eax, DWORD PTR [edx]
	cmp	eax, DWORD PTR __Parent_proxy$15139[ebp]
	je	SHORT $LN3@Adopt

; 143  : 				{	// change parentage
; 144  : 				_Lockit _Lock(_LOCK_DEBUG);

	push	3
	lea	ecx, DWORD PTR __Lock$15141[ebp]
	call	??0_Lockit@std@@QAE@H@Z			; std::_Lockit::_Lockit
	mov	DWORD PTR __$EHRec$[ebp+8], 0

; 145  : 				_Orphan_me();

	mov	ecx, DWORD PTR _this$[ebp]
	call	?_Orphan_me@_Iterator_base12@std@@QAEXXZ ; std::_Iterator_base12::_Orphan_me

; 146  : 				_Mynextiter = _Parent_proxy->_Myfirstiter;

	mov	ecx, DWORD PTR _this$[ebp]
	mov	edx, DWORD PTR __Parent_proxy$15139[ebp]
	mov	eax, DWORD PTR [edx+4]
	mov	DWORD PTR [ecx+4], eax

; 147  : 				_Parent_proxy->_Myfirstiter = this;

	mov	ecx, DWORD PTR __Parent_proxy$15139[ebp]
	mov	edx, DWORD PTR _this$[ebp]
	mov	DWORD PTR [ecx+4], edx

; 148  : 				_Myproxy = _Parent_proxy;

	mov	eax, DWORD PTR _this$[ebp]
	mov	ecx, DWORD PTR __Parent_proxy$15139[ebp]
	mov	DWORD PTR [eax], ecx

; 149  : 				}

	mov	DWORD PTR __$EHRec$[ebp+8], -1
	lea	ecx, DWORD PTR __Lock$15141[ebp]
	call	??1_Lockit@std@@QAE@XZ			; std::_Lockit::~_Lockit
$LN3@Adopt:

; 150  :  #else /* _ITERATOR_DEBUG_LEVEL == 2 */
; 151  : 			_Myproxy = _Parent_proxy;
; 152  :  #endif /* _ITERATOR_DEBUG_LEVEL == 2 */
; 153  : 			}
; 154  : 		}

	push	edx
	mov	ecx, ebp
	push	eax
	lea	edx, DWORD PTR $LN9@Adopt
	call	@_RTC_CheckStackVars@8
	pop	eax
	pop	edx
	mov	ecx, DWORD PTR __$EHRec$[ebp]
	mov	DWORD PTR fs:0, ecx
	pop	ecx
	add	esp, 32					; 00000020H
	cmp	ebp, esp
	call	__RTC_CheckEsp
	mov	esp, ebp
	pop	ebp
	ret	4
	npad	3
$LN9@Adopt:
	DD	1
	DD	$LN8@Adopt
$LN8@Adopt:
	DD	-28					; ffffffe4H
	DD	4
	DD	$LN6@Adopt
$LN6@Adopt:
	DB	95					; 0000005fH
	DB	76					; 0000004cH
	DB	111					; 0000006fH
	DB	99					; 00000063H
	DB	107					; 0000006bH
	DB	0
_TEXT	ENDS
;	COMDAT text$x
text$x	SEGMENT
__unwindfunclet$?_Adopt@_Iterator_base12@std@@QAEXPBU_Container_base12@2@@Z$0:
	lea	ecx, DWORD PTR __Lock$15141[ebp]
	jmp	??1_Lockit@std@@QAE@XZ			; std::_Lockit::~_Lockit
__ehhandler$?_Adopt@_Iterator_base12@std@@QAEXPBU_Container_base12@2@@Z:
	mov	edx, DWORD PTR [esp+8]
	lea	eax, DWORD PTR [edx+12]
	mov	ecx, DWORD PTR [edx-24]
	xor	ecx, eax
	call	@__security_check_cookie@4
	mov	eax, OFFSET __ehfuncinfo$?_Adopt@_Iterator_base12@std@@QAEXPBU_Container_base12@2@@Z
	jmp	___CxxFrameHandler3
text$x	ENDS
?_Adopt@_Iterator_base12@std@@QAEXPBU_Container_base12@2@@Z ENDP ; std::_Iterator_base12::_Adopt
PUBLIC	?SmoothPathEdgesPrecise@Raven_PathPlanner@@AAEXAAV?$list@VPathEdge@@V?$allocator@VPathEdge@@@std@@@std@@@Z ; Raven_PathPlanner::SmoothPathEdgesPrecise
PUBLIC	?SmoothPathEdgesQuick@Raven_PathPlanner@@AAEXAAV?$list@VPathEdge@@V?$allocator@VPathEdge@@@std@@@std@@@Z ; Raven_PathPlanner::SmoothPathEdgesQuick
PUBLIC	?push_back@?$list@VPathEdge@@V?$allocator@VPathEdge@@@std@@@std@@QAEX$$QAVPathEdge@@@Z ; std::list<PathEdge,std::allocator<PathEdge> >::push_back
PUBLIC	?Destination@PathEdge@@QBE?AUVector2D@@XZ	; PathEdge::Destination
PUBLIC	?back@?$list@VPathEdge@@V?$allocator@VPathEdge@@@std@@@std@@QAEAAVPathEdge@@XZ ; std::list<PathEdge,std::allocator<PathEdge> >::back
PUBLIC	?GetType@?$Graph_SearchTimeSliced@VNavGraphEdge@@@@QBE?AW4SearchType@1@XZ ; Graph_SearchTimeSliced<NavGraphEdge>::GetType
PUBLIC	?push_front@?$list@VPathEdge@@V?$allocator@VPathEdge@@@std@@@std@@QAEX$$QAVPathEdge@@@Z ; std::list<PathEdge,std::allocator<PathEdge> >::push_front
PUBLIC	??0PathEdge@@QAE@UVector2D@@0HH@Z		; PathEdge::PathEdge
PUBLIC	?GetNodePosition@Raven_PathPlanner@@QBE?AUVector2D@@H@Z ; Raven_PathPlanner::GetNodePosition
PUBLIC	??1?$list@VPathEdge@@V?$allocator@VPathEdge@@@std@@@std@@QAE@XZ ; std::list<PathEdge,std::allocator<PathEdge> >::~list<PathEdge,std::allocator<PathEdge> >
PUBLIC	??0?$list@VPathEdge@@V?$allocator@VPathEdge@@@std@@@std@@QAE@$$QAV01@@Z ; std::list<PathEdge,std::allocator<PathEdge> >::list<PathEdge,std::allocator<PathEdge> >
PUBLIC	??$?6$$BY00$$CBD@DebugConsole@@QAEAAV0@AAY00$$CBD@Z ; DebugConsole::operator<<<char const [1]>
PUBLIC	??$?6$$BY0BE@$$CBD@DebugConsole@@QAEAAV0@AAY0BE@$$CBD@Z ; DebugConsole::operator<<<char const [20]>
PUBLIC	?GetPath@Raven_PathPlanner@@QAE?AV?$list@VPathEdge@@V?$allocator@VPathEdge@@@std@@@std@@XZ ; Raven_PathPlanner::GetPath
EXTRN	?Instance@Raven_UserOptions@@SAPAV1@XZ:PROC	; Raven_UserOptions::Instance
EXTRN	?Instance@DebugConsole@@SAPAV1@XZ:PROC		; DebugConsole::Instance
EXTRN	__wassert:PROC
xdata$x	SEGMENT
__unwindtable$?GetPath@Raven_PathPlanner@@QAE?AV?$list@VPathEdge@@V?$allocator@VPathEdge@@@std@@@std@@XZ DD 0ffffffffH
	DD	FLAT:__unwindfunclet$?GetPath@Raven_PathPlanner@@QAE?AV?$list@VPathEdge@@V?$allocator@VPathEdge@@@std@@@std@@XZ$1
	DD	00H
	DD	FLAT:__unwindfunclet$?GetPath@Raven_PathPlanner@@QAE?AV?$list@VPathEdge@@V?$allocator@VPathEdge@@@std@@@std@@XZ$0
__ehfuncinfo$?GetPath@Raven_PathPlanner@@QAE?AV?$list@VPathEdge@@V?$allocator@VPathEdge@@@std@@@std@@XZ DD 019930522H
	DD	02H
	DD	FLAT:__unwindtable$?GetPath@Raven_PathPlanner@@QAE?AV?$list@VPathEdge@@V?$allocator@VPathEdge@@@std@@@std@@XZ
	DD	2 DUP(00H)
	DD	2 DUP(00H)
	DD	00H
	DD	01H
; Function compile flags: /Odtp /RTCsu
; File c:\users\alec\desktop\gameaisource\vs2010\buckland_chapter7 to 10_raven\navigation\raven_pathplanner.cpp
xdata$x	ENDS
_TEXT	SEGMENT
$T164497 = -192						; size = 4
$T164494 = -188						; size = 16
$T164493 = -172						; size = 40
$T164492 = -132						; size = 16
$T164491 = -116						; size = 16
$T164490 = -100						; size = 40
$T164489 = -60						; size = 16
_closest$ = -44						; size = 4
_path$ = -36						; size = 16
_this$ = -16						; size = 4
__$EHRec$ = -12						; size = 12
___$ReturnUdt$ = 8					; size = 4
?GetPath@Raven_PathPlanner@@QAE?AV?$list@VPathEdge@@V?$allocator@VPathEdge@@@std@@@std@@XZ PROC ; Raven_PathPlanner::GetPath
; _this$ = ecx

; 128  : {

	push	ebp
	mov	ebp, esp
	push	-1
	push	__ehhandler$?GetPath@Raven_PathPlanner@@QAE?AV?$list@VPathEdge@@V?$allocator@VPathEdge@@@std@@@std@@XZ
	mov	eax, DWORD PTR fs:0
	push	eax
	sub	esp, 180				; 000000b4H
	push	esi
	push	edi
	push	ecx
	lea	edi, DWORD PTR [ebp-192]
	mov	ecx, 45					; 0000002dH
	mov	eax, -858993460				; ccccccccH
	rep stosd
	pop	ecx
	mov	eax, DWORD PTR ___security_cookie
	xor	eax, ebp
	push	eax
	lea	eax, DWORD PTR __$EHRec$[ebp]
	mov	DWORD PTR fs:0, eax
	mov	DWORD PTR _this$[ebp], ecx
	mov	DWORD PTR $T164497[ebp], 0

; 129  :   assert (m_pCurrentSearch && 
; 130  :           "<Raven_PathPlanner::GetPathAsNodes>: no current search");

	mov	eax, DWORD PTR _this$[ebp]
	cmp	DWORD PTR [eax+12], 0
	je	SHORT $LN7@GetPath
	mov	ecx, OFFSET $SG144955
	test	ecx, ecx
	jne	SHORT $LN8@GetPath
$LN7@GetPath:
	push	130					; 00000082H
	push	OFFSET $SG144956
	push	OFFSET $SG144957
	call	__wassert
	add	esp, 12					; 0000000cH
$LN8@GetPath:

; 131  : 
; 132  : 
; 133  :   Path path =  m_pCurrentSearch->GetPathAsPathEdges();

	mov	esi, esp
	lea	eax, DWORD PTR _path$[ebp]
	push	eax
	mov	ecx, DWORD PTR _this$[ebp]
	mov	edx, DWORD PTR [ecx+12]
	mov	eax, DWORD PTR _this$[ebp]
	mov	ecx, DWORD PTR [eax+12]
	mov	edx, DWORD PTR [edx]
	mov	eax, DWORD PTR [edx+20]
	call	eax
	cmp	esi, esp
	call	__RTC_CheckEsp
	mov	DWORD PTR __$EHRec$[ebp+8], 1

; 134  : 
; 135  : 
; 136  : 
; 137  :   int closest = GetClosestNodeToPosition(m_pOwner->Pos());

	lea	ecx, DWORD PTR $T164489[ebp]
	push	ecx
	mov	edx, DWORD PTR _this$[ebp]
	mov	ecx, DWORD PTR [edx]
	call	?Pos@BaseGameEntity@@QBE?AUVector2D@@XZ	; BaseGameEntity::Pos
	sub	esp, 16					; 00000010H
	mov	ecx, esp
	mov	edx, DWORD PTR [eax]
	mov	DWORD PTR [ecx], edx
	mov	edx, DWORD PTR [eax+4]
	mov	DWORD PTR [ecx+4], edx
	mov	edx, DWORD PTR [eax+8]
	mov	DWORD PTR [ecx+8], edx
	mov	eax, DWORD PTR [eax+12]
	mov	DWORD PTR [ecx+12], eax
	mov	ecx, DWORD PTR _this$[ebp]
	call	?GetClosestNodeToPosition@Raven_PathPlanner@@ABEHUVector2D@@@Z ; Raven_PathPlanner::GetClosestNodeToPosition
	mov	DWORD PTR _closest$[ebp], eax

; 138  : 
; 139  :   if (closest == -1)

	cmp	DWORD PTR _closest$[ebp], -1
	jne	SHORT $LN4@GetPath

; 140  :   {
; 141  : 	  debug_con << "YOU FREAKING FAILED" << "";

	push	OFFSET $SG144970
	push	OFFSET $SG144969
	call	?Instance@DebugConsole@@SAPAV1@XZ	; DebugConsole::Instance
	mov	ecx, eax
	call	??$?6$$BY0BE@$$CBD@DebugConsole@@QAEAAV0@AAY0BE@$$CBD@Z ; DebugConsole::operator<<<char const [20]>
	mov	ecx, eax
	call	??$?6$$BY00$$CBD@DebugConsole@@QAEAAV0@AAY00$$CBD@Z ; DebugConsole::operator<<<char const [1]>

; 142  : 	  return path;

	lea	ecx, DWORD PTR _path$[ebp]
	push	ecx
	mov	ecx, DWORD PTR ___$ReturnUdt$[ebp]
	call	??0?$list@VPathEdge@@V?$allocator@VPathEdge@@@std@@@std@@QAE@$$QAV01@@Z ; std::list<PathEdge,std::allocator<PathEdge> >::list<PathEdge,std::allocator<PathEdge> >
	mov	edx, DWORD PTR $T164497[ebp]
	or	edx, 1
	mov	DWORD PTR $T164497[ebp], edx
	mov	BYTE PTR __$EHRec$[ebp+8], 0
	lea	ecx, DWORD PTR _path$[ebp]
	call	??1?$list@VPathEdge@@V?$allocator@VPathEdge@@@std@@@std@@QAE@XZ ; std::list<PathEdge,std::allocator<PathEdge> >::~list<PathEdge,std::allocator<PathEdge> >
	mov	eax, DWORD PTR ___$ReturnUdt$[ebp]
	jmp	$LN5@GetPath
$LN4@GetPath:

; 143  :   }
; 144  : 
; 145  :   path.push_front(PathEdge(m_pOwner->Pos(),
; 146  :                             GetNodePosition(closest),
; 147  :                             NavGraphEdge::normal));

	push	0
	push	0
	mov	eax, DWORD PTR _closest$[ebp]
	push	eax
	lea	ecx, DWORD PTR $T164491[ebp]
	push	ecx
	mov	ecx, DWORD PTR _this$[ebp]
	call	?GetNodePosition@Raven_PathPlanner@@QBE?AUVector2D@@H@Z ; Raven_PathPlanner::GetNodePosition
	sub	esp, 16					; 00000010H
	mov	edx, esp
	mov	ecx, DWORD PTR [eax]
	mov	DWORD PTR [edx], ecx
	mov	ecx, DWORD PTR [eax+4]
	mov	DWORD PTR [edx+4], ecx
	mov	ecx, DWORD PTR [eax+8]
	mov	DWORD PTR [edx+8], ecx
	mov	eax, DWORD PTR [eax+12]
	mov	DWORD PTR [edx+12], eax
	lea	ecx, DWORD PTR $T164492[ebp]
	push	ecx
	mov	edx, DWORD PTR _this$[ebp]
	mov	ecx, DWORD PTR [edx]
	call	?Pos@BaseGameEntity@@QBE?AUVector2D@@XZ	; BaseGameEntity::Pos
	sub	esp, 16					; 00000010H
	mov	ecx, esp
	mov	edx, DWORD PTR [eax]
	mov	DWORD PTR [ecx], edx
	mov	edx, DWORD PTR [eax+4]
	mov	DWORD PTR [ecx+4], edx
	mov	edx, DWORD PTR [eax+8]
	mov	DWORD PTR [ecx+8], edx
	mov	eax, DWORD PTR [eax+12]
	mov	DWORD PTR [ecx+12], eax
	lea	ecx, DWORD PTR $T164490[ebp]
	call	??0PathEdge@@QAE@UVector2D@@0HH@Z	; PathEdge::PathEdge
	push	eax
	lea	ecx, DWORD PTR _path$[ebp]
	call	?push_front@?$list@VPathEdge@@V?$allocator@VPathEdge@@@std@@@std@@QAEX$$QAVPathEdge@@@Z ; std::list<PathEdge,std::allocator<PathEdge> >::push_front

; 148  : 
; 149  :   
; 150  :   //if the bot requested a path to a location then an edge leading to the
; 151  :   //destination must be added
; 152  :   if (m_pCurrentSearch->GetType() == Graph_SearchTimeSliced<EdgeType>::AStar)

	mov	ecx, DWORD PTR _this$[ebp]
	mov	ecx, DWORD PTR [ecx+12]
	call	?GetType@?$Graph_SearchTimeSliced@VNavGraphEdge@@@@QBE?AW4SearchType@1@XZ ; Graph_SearchTimeSliced<NavGraphEdge>::GetType
	test	eax, eax
	jne	SHORT $LN3@GetPath

; 153  :   {   
; 154  :     path.push_back(PathEdge(path.back().Destination(),
; 155  :                             m_vDestinationPos,
; 156  :                             NavGraphEdge::normal));

	push	0
	push	0
	mov	edx, DWORD PTR _this$[ebp]
	add	edx, 24					; 00000018H
	sub	esp, 16					; 00000010H
	mov	eax, esp
	mov	ecx, DWORD PTR [edx]
	mov	DWORD PTR [eax], ecx
	mov	ecx, DWORD PTR [edx+4]
	mov	DWORD PTR [eax+4], ecx
	mov	ecx, DWORD PTR [edx+8]
	mov	DWORD PTR [eax+8], ecx
	mov	edx, DWORD PTR [edx+12]
	mov	DWORD PTR [eax+12], edx
	lea	eax, DWORD PTR $T164494[ebp]
	push	eax
	lea	ecx, DWORD PTR _path$[ebp]
	call	?back@?$list@VPathEdge@@V?$allocator@VPathEdge@@@std@@@std@@QAEAAVPathEdge@@XZ ; std::list<PathEdge,std::allocator<PathEdge> >::back
	mov	ecx, eax
	call	?Destination@PathEdge@@QBE?AUVector2D@@XZ ; PathEdge::Destination
	sub	esp, 16					; 00000010H
	mov	ecx, esp
	mov	edx, DWORD PTR [eax]
	mov	DWORD PTR [ecx], edx
	mov	edx, DWORD PTR [eax+4]
	mov	DWORD PTR [ecx+4], edx
	mov	edx, DWORD PTR [eax+8]
	mov	DWORD PTR [ecx+8], edx
	mov	eax, DWORD PTR [eax+12]
	mov	DWORD PTR [ecx+12], eax
	lea	ecx, DWORD PTR $T164493[ebp]
	call	??0PathEdge@@QAE@UVector2D@@0HH@Z	; PathEdge::PathEdge
	push	eax
	lea	ecx, DWORD PTR _path$[ebp]
	call	?push_back@?$list@VPathEdge@@V?$allocator@VPathEdge@@@std@@@std@@QAEX$$QAVPathEdge@@@Z ; std::list<PathEdge,std::allocator<PathEdge> >::push_back
$LN3@GetPath:

; 157  :   }
; 158  : 
; 159  : 
; 160  :   //smooth paths if required
; 161  :   if (UserOptions->m_bSmoothPathsQuick)

	call	?Instance@Raven_UserOptions@@SAPAV1@XZ	; Raven_UserOptions::Instance
	movzx	ecx, BYTE PTR [eax+9]
	test	ecx, ecx
	je	SHORT $LN2@GetPath

; 162  :   {
; 163  :     SmoothPathEdgesQuick(path);

	lea	edx, DWORD PTR _path$[ebp]
	push	edx
	mov	ecx, DWORD PTR _this$[ebp]
	call	?SmoothPathEdgesQuick@Raven_PathPlanner@@AAEXAAV?$list@VPathEdge@@V?$allocator@VPathEdge@@@std@@@std@@@Z ; Raven_PathPlanner::SmoothPathEdgesQuick
$LN2@GetPath:

; 164  :   }
; 165  : 
; 166  :   if (UserOptions->m_bSmoothPathsPrecise)

	call	?Instance@Raven_UserOptions@@SAPAV1@XZ	; Raven_UserOptions::Instance
	movzx	eax, BYTE PTR [eax+10]
	test	eax, eax
	je	SHORT $LN1@GetPath

; 167  :   {
; 168  :     SmoothPathEdgesPrecise(path);

	lea	ecx, DWORD PTR _path$[ebp]
	push	ecx
	mov	ecx, DWORD PTR _this$[ebp]
	call	?SmoothPathEdgesPrecise@Raven_PathPlanner@@AAEXAAV?$list@VPathEdge@@V?$allocator@VPathEdge@@@std@@@std@@@Z ; Raven_PathPlanner::SmoothPathEdgesPrecise
$LN1@GetPath:

; 169  :   }
; 170  : 
; 171  :   return path;

	lea	edx, DWORD PTR _path$[ebp]
	push	edx
	mov	ecx, DWORD PTR ___$ReturnUdt$[ebp]
	call	??0?$list@VPathEdge@@V?$allocator@VPathEdge@@@std@@@std@@QAE@$$QAV01@@Z ; std::list<PathEdge,std::allocator<PathEdge> >::list<PathEdge,std::allocator<PathEdge> >
	mov	eax, DWORD PTR $T164497[ebp]
	or	eax, 1
	mov	DWORD PTR $T164497[ebp], eax
	mov	BYTE PTR __$EHRec$[ebp+8], 0
	lea	ecx, DWORD PTR _path$[ebp]
	call	??1?$list@VPathEdge@@V?$allocator@VPathEdge@@@std@@@std@@QAE@XZ ; std::list<PathEdge,std::allocator<PathEdge> >::~list<PathEdge,std::allocator<PathEdge> >
	mov	eax, DWORD PTR ___$ReturnUdt$[ebp]
$LN5@GetPath:

; 172  : }

	push	edx
	mov	ecx, ebp
	push	eax
	lea	edx, DWORD PTR $LN15@GetPath
	call	@_RTC_CheckStackVars@8
	pop	eax
	pop	edx
	mov	ecx, DWORD PTR __$EHRec$[ebp]
	mov	DWORD PTR fs:0, ecx
	pop	ecx
	pop	edi
	pop	esi
	add	esp, 192				; 000000c0H
	cmp	ebp, esp
	call	__RTC_CheckEsp
	mov	esp, ebp
	pop	ebp
	ret	4
	npad	1
$LN15@GetPath:
	DD	1
	DD	$LN14@GetPath
$LN14@GetPath:
	DD	-36					; ffffffdcH
	DD	16					; 00000010H
	DD	$LN12@GetPath
$LN12@GetPath:
	DB	112					; 00000070H
	DB	97					; 00000061H
	DB	116					; 00000074H
	DB	104					; 00000068H
	DB	0
_TEXT	ENDS
text$x	SEGMENT
__unwindfunclet$?GetPath@Raven_PathPlanner@@QAE?AV?$list@VPathEdge@@V?$allocator@VPathEdge@@@std@@@std@@XZ$0:
	lea	ecx, DWORD PTR _path$[ebp]
	jmp	??1?$list@VPathEdge@@V?$allocator@VPathEdge@@@std@@@std@@QAE@XZ ; std::list<PathEdge,std::allocator<PathEdge> >::~list<PathEdge,std::allocator<PathEdge> >
__unwindfunclet$?GetPath@Raven_PathPlanner@@QAE?AV?$list@VPathEdge@@V?$allocator@VPathEdge@@@std@@@std@@XZ$1:
	mov	eax, DWORD PTR $T164497[ebp]
	and	eax, 1
	je	$LN11@GetPath
	and	DWORD PTR $T164497[ebp], -2		; fffffffeH
	mov	ecx, DWORD PTR ___$ReturnUdt$[ebp]
	jmp	??1?$list@VPathEdge@@V?$allocator@VPathEdge@@@std@@@std@@QAE@XZ ; std::list<PathEdge,std::allocator<PathEdge> >::~list<PathEdge,std::allocator<PathEdge> >
$LN11@GetPath:
	ret	0
__ehhandler$?GetPath@Raven_PathPlanner@@QAE?AV?$list@VPathEdge@@V?$allocator@VPathEdge@@@std@@@std@@XZ:
	mov	edx, DWORD PTR [esp+8]
	lea	eax, DWORD PTR [edx+12]
	mov	ecx, DWORD PTR [edx-192]
	xor	ecx, eax
	call	@__security_check_cookie@4
	mov	eax, OFFSET __ehfuncinfo$?GetPath@Raven_PathPlanner@@QAE?AV?$list@VPathEdge@@V?$allocator@VPathEdge@@@std@@@std@@XZ
	jmp	___CxxFrameHandler3
text$x	ENDS
?GetPath@Raven_PathPlanner@@QAE?AV?$list@VPathEdge@@V?$allocator@VPathEdge@@@std@@@std@@XZ ENDP ; Raven_PathPlanner::GetPath
; Function compile flags: /Odtp /RTCsu
; File c:\users\alec\desktop\gameaisource\vs2010\buckland_chapter7 to 10_raven\navigation\pathedge.h
;	COMDAT ??0PathEdge@@QAE@UVector2D@@0HH@Z
_TEXT	SEGMENT
_this$ = -4						; size = 4
_Source$ = 8						; size = 16
_Destination$ = 24					; size = 16
_Behavior$ = 40						; size = 4
_DoorID$ = 44						; size = 4
??0PathEdge@@QAE@UVector2D@@0HH@Z PROC			; PathEdge::PathEdge, COMDAT
; _this$ = ecx

; 37   :   {}

	push	ebp
	mov	ebp, esp
	push	ecx
	mov	DWORD PTR [ebp-4], -858993460		; ccccccccH
	mov	DWORD PTR _this$[ebp], ecx
	mov	eax, DWORD PTR _this$[ebp]
	mov	ecx, DWORD PTR _Source$[ebp]
	mov	DWORD PTR [eax], ecx
	mov	edx, DWORD PTR _Source$[ebp+4]
	mov	DWORD PTR [eax+4], edx
	mov	ecx, DWORD PTR _Source$[ebp+8]
	mov	DWORD PTR [eax+8], ecx
	mov	edx, DWORD PTR _Source$[ebp+12]
	mov	DWORD PTR [eax+12], edx
	mov	eax, DWORD PTR _this$[ebp]
	add	eax, 16					; 00000010H
	mov	ecx, DWORD PTR _Destination$[ebp]
	mov	DWORD PTR [eax], ecx
	mov	edx, DWORD PTR _Destination$[ebp+4]
	mov	DWORD PTR [eax+4], edx
	mov	ecx, DWORD PTR _Destination$[ebp+8]
	mov	DWORD PTR [eax+8], ecx
	mov	edx, DWORD PTR _Destination$[ebp+12]
	mov	DWORD PTR [eax+12], edx
	mov	eax, DWORD PTR _this$[ebp]
	mov	ecx, DWORD PTR _Behavior$[ebp]
	mov	DWORD PTR [eax+32], ecx
	mov	edx, DWORD PTR _this$[ebp]
	mov	eax, DWORD PTR _DoorID$[ebp]
	mov	DWORD PTR [edx+36], eax
	mov	eax, DWORD PTR _this$[ebp]
	mov	esp, ebp
	pop	ebp
	ret	40					; 00000028H
??0PathEdge@@QAE@UVector2D@@0HH@Z ENDP			; PathEdge::PathEdge
; Function compile flags: /Odtp /RTCsu
_TEXT	ENDS
;	COMDAT ?Destination@PathEdge@@QBE?AUVector2D@@XZ
_TEXT	SEGMENT
_this$ = -4						; size = 4
___$ReturnUdt$ = 8					; size = 4
?Destination@PathEdge@@QBE?AUVector2D@@XZ PROC		; PathEdge::Destination, COMDAT
; _this$ = ecx

; 39   :   Vector2D Destination()const{return m_vDestination;}

	push	ebp
	mov	ebp, esp
	push	ecx
	mov	DWORD PTR [ebp-4], -858993460		; ccccccccH
	mov	DWORD PTR _this$[ebp], ecx
	mov	eax, DWORD PTR _this$[ebp]
	add	eax, 16					; 00000010H
	mov	ecx, DWORD PTR ___$ReturnUdt$[ebp]
	mov	edx, DWORD PTR [eax]
	mov	DWORD PTR [ecx], edx
	mov	edx, DWORD PTR [eax+4]
	mov	DWORD PTR [ecx+4], edx
	mov	edx, DWORD PTR [eax+8]
	mov	DWORD PTR [ecx+8], edx
	mov	eax, DWORD PTR [eax+12]
	mov	DWORD PTR [ecx+12], eax
	mov	eax, DWORD PTR ___$ReturnUdt$[ebp]
	mov	esp, ebp
	pop	ebp
	ret	4
?Destination@PathEdge@@QBE?AUVector2D@@XZ ENDP		; PathEdge::Destination
_TEXT	ENDS
PUBLIC	??4?$_List_iterator@V?$_List_val@VPathEdge@@V?$allocator@VPathEdge@@@std@@@std@@@std@@QAEAAV01@ABV01@@Z ; std::_List_iterator<std::_List_val<PathEdge,std::allocator<PathEdge> > >::operator=
PUBLIC	?erase@?$list@VPathEdge@@V?$allocator@VPathEdge@@@std@@@std@@QAE?AV?$_List_iterator@V?$_List_val@VPathEdge@@V?$allocator@VPathEdge@@@std@@@std@@@2@V?$_List_const_iterator@V?$_List_val@VPathEdge@@V?$allocator@VPathEdge@@@std@@@std@@@2@@Z ; std::list<PathEdge,std::allocator<PathEdge> >::erase
PUBLIC	??0?$_List_const_iterator@V?$_List_val@VPathEdge@@V?$allocator@VPathEdge@@@std@@@std@@@std@@QAE@ABV01@@Z ; std::_List_const_iterator<std::_List_val<PathEdge,std::allocator<PathEdge> > >::_List_const_iterator<std::_List_val<PathEdge,std::allocator<PathEdge> > >
PUBLIC	?SetDestination@PathEdge@@QAEXUVector2D@@@Z	; PathEdge::SetDestination
PUBLIC	?Source@PathEdge@@QBE?AUVector2D@@XZ		; PathEdge::Source
PUBLIC	?Behavior@PathEdge@@QBEHXZ			; PathEdge::Behavior
PUBLIC	??C?$_List_iterator@V?$_List_val@VPathEdge@@V?$allocator@VPathEdge@@@std@@@std@@@std@@QBEPAVPathEdge@@XZ ; std::_List_iterator<std::_List_val<PathEdge,std::allocator<PathEdge> > >::operator->
PUBLIC	??1?$_List_iterator@V?$_List_val@VPathEdge@@V?$allocator@VPathEdge@@@std@@@std@@@std@@QAE@XZ ; std::_List_iterator<std::_List_val<PathEdge,std::allocator<PathEdge> > >::~_List_iterator<std::_List_val<PathEdge,std::allocator<PathEdge> > >
PUBLIC	??9?$_List_const_iterator@V?$_List_val@VPathEdge@@V?$allocator@VPathEdge@@@std@@@std@@@std@@QBE_NABV01@@Z ; std::_List_const_iterator<std::_List_val<PathEdge,std::allocator<PathEdge> > >::operator!=
PUBLIC	?end@?$list@VPathEdge@@V?$allocator@VPathEdge@@@std@@@std@@QAE?AV?$_List_iterator@V?$_List_val@VPathEdge@@V?$allocator@VPathEdge@@@std@@@std@@@2@XZ ; std::list<PathEdge,std::allocator<PathEdge> >::end
PUBLIC	??E?$_List_iterator@V?$_List_val@VPathEdge@@V?$allocator@VPathEdge@@@std@@@std@@@std@@QAEAAV01@XZ ; std::_List_iterator<std::_List_val<PathEdge,std::allocator<PathEdge> > >::operator++
PUBLIC	?begin@?$list@VPathEdge@@V?$allocator@VPathEdge@@@std@@@std@@QAE?AV?$_List_iterator@V?$_List_val@VPathEdge@@V?$allocator@VPathEdge@@@std@@@std@@@2@XZ ; std::list<PathEdge,std::allocator<PathEdge> >::begin
EXTRN	?canWalkBetween@Raven_Bot@@QBE_NUVector2D@@0@Z:PROC ; Raven_Bot::canWalkBetween
xdata$x	SEGMENT
__unwindtable$?SmoothPathEdgesQuick@Raven_PathPlanner@@AAEXAAV?$list@VPathEdge@@V?$allocator@VPathEdge@@@std@@@std@@@Z DD 0ffffffffH
	DD	FLAT:__unwindfunclet$?SmoothPathEdgesQuick@Raven_PathPlanner@@AAEXAAV?$list@VPathEdge@@V?$allocator@VPathEdge@@@std@@@std@@@Z$0
	DD	00H
	DD	FLAT:__unwindfunclet$?SmoothPathEdgesQuick@Raven_PathPlanner@@AAEXAAV?$list@VPathEdge@@V?$allocator@VPathEdge@@@std@@@std@@@Z$1
	DD	01H
	DD	FLAT:__unwindfunclet$?SmoothPathEdgesQuick@Raven_PathPlanner@@AAEXAAV?$list@VPathEdge@@V?$allocator@VPathEdge@@@std@@@std@@@Z$2
	DD	01H
	DD	FLAT:__unwindfunclet$?SmoothPathEdgesQuick@Raven_PathPlanner@@AAEXAAV?$list@VPathEdge@@V?$allocator@VPathEdge@@@std@@@std@@@Z$4
__ehfuncinfo$?SmoothPathEdgesQuick@Raven_PathPlanner@@AAEXAAV?$list@VPathEdge@@V?$allocator@VPathEdge@@@std@@@std@@@Z DD 019930522H
	DD	04H
	DD	FLAT:__unwindtable$?SmoothPathEdgesQuick@Raven_PathPlanner@@AAEXAAV?$list@VPathEdge@@V?$allocator@VPathEdge@@@std@@@std@@@Z
	DD	2 DUP(00H)
	DD	2 DUP(00H)
	DD	00H
	DD	01H
; Function compile flags: /Odtp /RTCsu
; File c:\users\alec\desktop\gameaisource\vs2010\buckland_chapter7 to 10_raven\navigation\raven_pathplanner.cpp
xdata$x	ENDS
_TEXT	SEGMENT
tv189 = -156						; size = 4
tv187 = -152						; size = 4
tv186 = -148						; size = 4
tv184 = -144						; size = 4
tv69 = -140						; size = 4
$T164517 = -136						; size = 12
$T164516 = -124						; size = 4
$T164515 = -120						; size = 16
$T164514 = -104						; size = 16
$T164513 = -88						; size = 16
$T164512 = -72						; size = 12
$T164511 = -57						; size = 1
_e2$ = -52						; size = 12
_e1$ = -32						; size = 12
_this$ = -16						; size = 4
__$EHRec$ = -12						; size = 12
_path$ = 8						; size = 4
?SmoothPathEdgesQuick@Raven_PathPlanner@@AAEXAAV?$list@VPathEdge@@V?$allocator@VPathEdge@@@std@@@std@@@Z PROC ; Raven_PathPlanner::SmoothPathEdgesQuick
; _this$ = ecx

; 179  : {

	push	ebp
	mov	ebp, esp
	push	-1
	push	__ehhandler$?SmoothPathEdgesQuick@Raven_PathPlanner@@AAEXAAV?$list@VPathEdge@@V?$allocator@VPathEdge@@@std@@@std@@@Z
	mov	eax, DWORD PTR fs:0
	push	eax
	sub	esp, 144				; 00000090H
	push	edi
	push	ecx
	lea	edi, DWORD PTR [ebp-156]
	mov	ecx, 36					; 00000024H
	mov	eax, -858993460				; ccccccccH
	rep stosd
	pop	ecx
	mov	eax, DWORD PTR ___security_cookie
	xor	eax, ebp
	push	eax
	lea	eax, DWORD PTR __$EHRec$[ebp]
	mov	DWORD PTR fs:0, eax
	mov	DWORD PTR _this$[ebp], ecx

; 180  :   //create a couple of iterators and point them at the front of the path
; 181  :   Path::iterator e1(path.begin()), e2(path.begin());

	lea	eax, DWORD PTR _e1$[ebp]
	push	eax
	mov	ecx, DWORD PTR _path$[ebp]
	call	?begin@?$list@VPathEdge@@V?$allocator@VPathEdge@@@std@@@std@@QAE?AV?$_List_iterator@V?$_List_val@VPathEdge@@V?$allocator@VPathEdge@@@std@@@std@@@2@XZ ; std::list<PathEdge,std::allocator<PathEdge> >::begin
	mov	DWORD PTR __$EHRec$[ebp+8], 0
	lea	ecx, DWORD PTR _e2$[ebp]
	push	ecx
	mov	ecx, DWORD PTR _path$[ebp]
	call	?begin@?$list@VPathEdge@@V?$allocator@VPathEdge@@@std@@@std@@QAE?AV?$_List_iterator@V?$_List_val@VPathEdge@@V?$allocator@VPathEdge@@@std@@@std@@@2@XZ ; std::list<PathEdge,std::allocator<PathEdge> >::begin
	mov	BYTE PTR __$EHRec$[ebp+8], 1

; 182  : 
; 183  :   //increment e2 so it points to the edge following e1.
; 184  :   ++e2;

	lea	ecx, DWORD PTR _e2$[ebp]
	call	??E?$_List_iterator@V?$_List_val@VPathEdge@@V?$allocator@VPathEdge@@@std@@@std@@@std@@QAEAAV01@XZ ; std::_List_iterator<std::_List_val<PathEdge,std::allocator<PathEdge> > >::operator++
$LN4@SmoothPath:

; 185  : 
; 186  :   //while e2 is not the last edge in the path, step through the edges checking
; 187  :   //to see if the agent can move without obstruction from the source node of
; 188  :   //e1 to the destination node of e2. If the agent can move between those 
; 189  :   //positions then the two edges are replaced with a single edge.
; 190  :   while (e2 != path.end())

	lea	edx, DWORD PTR $T164512[ebp]
	push	edx
	mov	ecx, DWORD PTR _path$[ebp]
	call	?end@?$list@VPathEdge@@V?$allocator@VPathEdge@@@std@@@std@@QAE?AV?$_List_iterator@V?$_List_val@VPathEdge@@V?$allocator@VPathEdge@@@std@@@std@@@2@XZ ; std::list<PathEdge,std::allocator<PathEdge> >::end
	mov	DWORD PTR tv69[ebp], eax
	mov	eax, DWORD PTR tv69[ebp]
	mov	DWORD PTR tv184[ebp], eax
	mov	BYTE PTR __$EHRec$[ebp+8], 2
	mov	ecx, DWORD PTR tv184[ebp]
	push	ecx
	lea	ecx, DWORD PTR _e2$[ebp]
	call	??9?$_List_const_iterator@V?$_List_val@VPathEdge@@V?$allocator@VPathEdge@@@std@@@std@@@std@@QBE_NABV01@@Z ; std::_List_const_iterator<std::_List_val<PathEdge,std::allocator<PathEdge> > >::operator!=
	mov	BYTE PTR $T164511[ebp], al
	mov	BYTE PTR __$EHRec$[ebp+8], 1
	lea	ecx, DWORD PTR $T164512[ebp]
	call	??1?$_List_iterator@V?$_List_val@VPathEdge@@V?$allocator@VPathEdge@@@std@@@std@@@std@@QAE@XZ
	movzx	edx, BYTE PTR $T164511[ebp]
	test	edx, edx
	je	$LN3@SmoothPath

; 191  :   {
; 192  :     //check for obstruction, adjust and remove the edges accordingly
; 193  :     if ( (e2->Behavior() == EdgeType::normal) &&
; 194  :           m_pOwner->canWalkBetween(e1->Source(), e2->Destination()) )

	lea	ecx, DWORD PTR _e2$[ebp]
	call	??C?$_List_iterator@V?$_List_val@VPathEdge@@V?$allocator@VPathEdge@@@std@@@std@@@std@@QBEPAVPathEdge@@XZ ; std::_List_iterator<std::_List_val<PathEdge,std::allocator<PathEdge> > >::operator->
	mov	ecx, eax
	call	?Behavior@PathEdge@@QBEHXZ		; PathEdge::Behavior
	test	eax, eax
	jne	$LN2@SmoothPath
	lea	eax, DWORD PTR $T164513[ebp]
	push	eax
	lea	ecx, DWORD PTR _e2$[ebp]
	call	??C?$_List_iterator@V?$_List_val@VPathEdge@@V?$allocator@VPathEdge@@@std@@@std@@@std@@QBEPAVPathEdge@@XZ ; std::_List_iterator<std::_List_val<PathEdge,std::allocator<PathEdge> > >::operator->
	mov	ecx, eax
	call	?Destination@PathEdge@@QBE?AUVector2D@@XZ ; PathEdge::Destination
	sub	esp, 16					; 00000010H
	mov	ecx, esp
	mov	edx, DWORD PTR [eax]
	mov	DWORD PTR [ecx], edx
	mov	edx, DWORD PTR [eax+4]
	mov	DWORD PTR [ecx+4], edx
	mov	edx, DWORD PTR [eax+8]
	mov	DWORD PTR [ecx+8], edx
	mov	eax, DWORD PTR [eax+12]
	mov	DWORD PTR [ecx+12], eax
	lea	ecx, DWORD PTR $T164514[ebp]
	push	ecx
	lea	ecx, DWORD PTR _e1$[ebp]
	call	??C?$_List_iterator@V?$_List_val@VPathEdge@@V?$allocator@VPathEdge@@@std@@@std@@@std@@QBEPAVPathEdge@@XZ ; std::_List_iterator<std::_List_val<PathEdge,std::allocator<PathEdge> > >::operator->
	mov	ecx, eax
	call	?Source@PathEdge@@QBE?AUVector2D@@XZ	; PathEdge::Source
	sub	esp, 16					; 00000010H
	mov	edx, esp
	mov	ecx, DWORD PTR [eax]
	mov	DWORD PTR [edx], ecx
	mov	ecx, DWORD PTR [eax+4]
	mov	DWORD PTR [edx+4], ecx
	mov	ecx, DWORD PTR [eax+8]
	mov	DWORD PTR [edx+8], ecx
	mov	eax, DWORD PTR [eax+12]
	mov	DWORD PTR [edx+12], eax
	mov	ecx, DWORD PTR _this$[ebp]
	mov	ecx, DWORD PTR [ecx]
	call	?canWalkBetween@Raven_Bot@@QBE_NUVector2D@@0@Z ; Raven_Bot::canWalkBetween
	movzx	edx, al
	test	edx, edx
	je	$LN2@SmoothPath

; 195  :     {
; 196  :       e1->SetDestination(e2->Destination());

	lea	eax, DWORD PTR $T164515[ebp]
	push	eax
	lea	ecx, DWORD PTR _e2$[ebp]
	call	??C?$_List_iterator@V?$_List_val@VPathEdge@@V?$allocator@VPathEdge@@@std@@@std@@@std@@QBEPAVPathEdge@@XZ ; std::_List_iterator<std::_List_val<PathEdge,std::allocator<PathEdge> > >::operator->
	mov	ecx, eax
	call	?Destination@PathEdge@@QBE?AUVector2D@@XZ ; PathEdge::Destination
	sub	esp, 16					; 00000010H
	mov	ecx, esp
	mov	edx, DWORD PTR [eax]
	mov	DWORD PTR [ecx], edx
	mov	edx, DWORD PTR [eax+4]
	mov	DWORD PTR [ecx+4], edx
	mov	edx, DWORD PTR [eax+8]
	mov	DWORD PTR [ecx+8], edx
	mov	eax, DWORD PTR [eax+12]
	mov	DWORD PTR [ecx+12], eax
	lea	ecx, DWORD PTR _e1$[ebp]
	call	??C?$_List_iterator@V?$_List_val@VPathEdge@@V?$allocator@VPathEdge@@@std@@@std@@@std@@QBEPAVPathEdge@@XZ ; std::_List_iterator<std::_List_val<PathEdge,std::allocator<PathEdge> > >::operator->
	mov	ecx, eax
	call	?SetDestination@PathEdge@@QAEXUVector2D@@@Z ; PathEdge::SetDestination

; 197  :       e2 = path.erase(e2);

	sub	esp, 12					; 0000000cH
	mov	ecx, esp
	mov	DWORD PTR $T164516[ebp], esp
	lea	edx, DWORD PTR _e2$[ebp]
	push	edx
	call	??0?$_List_const_iterator@V?$_List_val@VPathEdge@@V?$allocator@VPathEdge@@@std@@@std@@@std@@QAE@ABV01@@Z
	mov	DWORD PTR tv186[ebp], eax
	lea	eax, DWORD PTR $T164517[ebp]
	push	eax
	mov	ecx, DWORD PTR _path$[ebp]
	call	?erase@?$list@VPathEdge@@V?$allocator@VPathEdge@@@std@@@std@@QAE?AV?$_List_iterator@V?$_List_val@VPathEdge@@V?$allocator@VPathEdge@@@std@@@std@@@2@V?$_List_const_iterator@V?$_List_val@VPathEdge@@V?$allocator@VPathEdge@@@std@@@std@@@2@@Z ; std::list<PathEdge,std::allocator<PathEdge> >::erase
	mov	DWORD PTR tv187[ebp], eax
	mov	ecx, DWORD PTR tv187[ebp]
	mov	DWORD PTR tv189[ebp], ecx
	mov	BYTE PTR __$EHRec$[ebp+8], 3
	mov	edx, DWORD PTR tv189[ebp]
	push	edx
	lea	ecx, DWORD PTR _e2$[ebp]
	call	??4?$_List_iterator@V?$_List_val@VPathEdge@@V?$allocator@VPathEdge@@@std@@@std@@@std@@QAEAAV01@ABV01@@Z
	mov	BYTE PTR __$EHRec$[ebp+8], 1
	lea	ecx, DWORD PTR $T164517[ebp]
	call	??1?$_List_iterator@V?$_List_val@VPathEdge@@V?$allocator@VPathEdge@@@std@@@std@@@std@@QAE@XZ

; 198  :     }
; 199  : 
; 200  :     else

	jmp	SHORT $LN1@SmoothPath
$LN2@SmoothPath:

; 201  :     {
; 202  :       e1 = e2;

	lea	eax, DWORD PTR _e2$[ebp]
	push	eax
	lea	ecx, DWORD PTR _e1$[ebp]
	call	??4?$_List_iterator@V?$_List_val@VPathEdge@@V?$allocator@VPathEdge@@@std@@@std@@@std@@QAEAAV01@ABV01@@Z

; 203  :       ++e2;

	lea	ecx, DWORD PTR _e2$[ebp]
	call	??E?$_List_iterator@V?$_List_val@VPathEdge@@V?$allocator@VPathEdge@@@std@@@std@@@std@@QAEAAV01@XZ ; std::_List_iterator<std::_List_val<PathEdge,std::allocator<PathEdge> > >::operator++
$LN1@SmoothPath:

; 204  :     }
; 205  :   }

	jmp	$LN4@SmoothPath
$LN3@SmoothPath:

; 206  : }

	mov	BYTE PTR __$EHRec$[ebp+8], 0
	lea	ecx, DWORD PTR _e2$[ebp]
	call	??1?$_List_iterator@V?$_List_val@VPathEdge@@V?$allocator@VPathEdge@@@std@@@std@@@std@@QAE@XZ
	mov	DWORD PTR __$EHRec$[ebp+8], -1
	lea	ecx, DWORD PTR _e1$[ebp]
	call	??1?$_List_iterator@V?$_List_val@VPathEdge@@V?$allocator@VPathEdge@@@std@@@std@@@std@@QAE@XZ
	push	edx
	mov	ecx, ebp
	push	eax
	lea	edx, DWORD PTR $LN16@SmoothPath
	call	@_RTC_CheckStackVars@8
	pop	eax
	pop	edx
	mov	ecx, DWORD PTR __$EHRec$[ebp]
	mov	DWORD PTR fs:0, ecx
	pop	ecx
	pop	edi
	add	esp, 156				; 0000009cH
	cmp	ebp, esp
	call	__RTC_CheckEsp
	mov	esp, ebp
	pop	ebp
	ret	4
$LN16@SmoothPath:
	DD	2
	DD	$LN15@SmoothPath
$LN15@SmoothPath:
	DD	-32					; ffffffe0H
	DD	12					; 0000000cH
	DD	$LN12@SmoothPath
	DD	-52					; ffffffccH
	DD	12					; 0000000cH
	DD	$LN13@SmoothPath
$LN13@SmoothPath:
	DB	101					; 00000065H
	DB	50					; 00000032H
	DB	0
$LN12@SmoothPath:
	DB	101					; 00000065H
	DB	49					; 00000031H
	DB	0
_TEXT	ENDS
text$x	SEGMENT
__unwindfunclet$?SmoothPathEdgesQuick@Raven_PathPlanner@@AAEXAAV?$list@VPathEdge@@V?$allocator@VPathEdge@@@std@@@std@@@Z$0:
	lea	ecx, DWORD PTR _e1$[ebp]
	jmp	??1?$_List_iterator@V?$_List_val@VPathEdge@@V?$allocator@VPathEdge@@@std@@@std@@@std@@QAE@XZ
__unwindfunclet$?SmoothPathEdgesQuick@Raven_PathPlanner@@AAEXAAV?$list@VPathEdge@@V?$allocator@VPathEdge@@@std@@@std@@@Z$1:
	lea	ecx, DWORD PTR _e2$[ebp]
	jmp	??1?$_List_iterator@V?$_List_val@VPathEdge@@V?$allocator@VPathEdge@@@std@@@std@@@std@@QAE@XZ
__unwindfunclet$?SmoothPathEdgesQuick@Raven_PathPlanner@@AAEXAAV?$list@VPathEdge@@V?$allocator@VPathEdge@@@std@@@std@@@Z$2:
	lea	ecx, DWORD PTR $T164512[ebp]
	jmp	??1?$_List_iterator@V?$_List_val@VPathEdge@@V?$allocator@VPathEdge@@@std@@@std@@@std@@QAE@XZ
__unwindfunclet$?SmoothPathEdgesQuick@Raven_PathPlanner@@AAEXAAV?$list@VPathEdge@@V?$allocator@VPathEdge@@@std@@@std@@@Z$4:
	lea	ecx, DWORD PTR $T164517[ebp]
	jmp	??1?$_List_iterator@V?$_List_val@VPathEdge@@V?$allocator@VPathEdge@@@std@@@std@@@std@@QAE@XZ
__ehhandler$?SmoothPathEdgesQuick@Raven_PathPlanner@@AAEXAAV?$list@VPathEdge@@V?$allocator@VPathEdge@@@std@@@std@@@Z:
	mov	edx, DWORD PTR [esp+8]
	lea	eax, DWORD PTR [edx+12]
	mov	ecx, DWORD PTR [edx-152]
	xor	ecx, eax
	call	@__security_check_cookie@4
	mov	eax, OFFSET __ehfuncinfo$?SmoothPathEdgesQuick@Raven_PathPlanner@@AAEXAAV?$list@VPathEdge@@V?$allocator@VPathEdge@@@std@@@std@@@Z
	jmp	___CxxFrameHandler3
text$x	ENDS
?SmoothPathEdgesQuick@Raven_PathPlanner@@AAEXAAV?$list@VPathEdge@@V?$allocator@VPathEdge@@@std@@@std@@@Z ENDP ; Raven_PathPlanner::SmoothPathEdgesQuick
; Function compile flags: /Odtp /RTCsu
; File c:\users\alec\desktop\gameaisource\vs2010\buckland_chapter7 to 10_raven\navigation\pathedge.h
;	COMDAT ?SetDestination@PathEdge@@QAEXUVector2D@@@Z
_TEXT	SEGMENT
_this$ = -4						; size = 4
_NewDest$ = 8						; size = 16
?SetDestination@PathEdge@@QAEXUVector2D@@@Z PROC	; PathEdge::SetDestination, COMDAT
; _this$ = ecx

; 40   :   void     SetDestination(Vector2D NewDest){m_vDestination = NewDest;}

	push	ebp
	mov	ebp, esp
	push	ecx
	mov	DWORD PTR [ebp-4], -858993460		; ccccccccH
	mov	DWORD PTR _this$[ebp], ecx
	mov	eax, DWORD PTR _this$[ebp]
	add	eax, 16					; 00000010H
	mov	ecx, DWORD PTR _NewDest$[ebp]
	mov	DWORD PTR [eax], ecx
	mov	edx, DWORD PTR _NewDest$[ebp+4]
	mov	DWORD PTR [eax+4], edx
	mov	ecx, DWORD PTR _NewDest$[ebp+8]
	mov	DWORD PTR [eax+8], ecx
	mov	edx, DWORD PTR _NewDest$[ebp+12]
	mov	DWORD PTR [eax+12], edx
	mov	esp, ebp
	pop	ebp
	ret	16					; 00000010H
?SetDestination@PathEdge@@QAEXUVector2D@@@Z ENDP	; PathEdge::SetDestination
; Function compile flags: /Odtp /RTCsu
_TEXT	ENDS
;	COMDAT ?Source@PathEdge@@QBE?AUVector2D@@XZ
_TEXT	SEGMENT
_this$ = -4						; size = 4
___$ReturnUdt$ = 8					; size = 4
?Source@PathEdge@@QBE?AUVector2D@@XZ PROC		; PathEdge::Source, COMDAT
; _this$ = ecx

; 42   :   Vector2D Source()const{return m_vSource;}

	push	ebp
	mov	ebp, esp
	push	ecx
	mov	DWORD PTR [ebp-4], -858993460		; ccccccccH
	mov	DWORD PTR _this$[ebp], ecx
	mov	eax, DWORD PTR _this$[ebp]
	mov	ecx, DWORD PTR ___$ReturnUdt$[ebp]
	mov	edx, DWORD PTR [eax]
	mov	DWORD PTR [ecx], edx
	mov	edx, DWORD PTR [eax+4]
	mov	DWORD PTR [ecx+4], edx
	mov	edx, DWORD PTR [eax+8]
	mov	DWORD PTR [ecx+8], edx
	mov	eax, DWORD PTR [eax+12]
	mov	DWORD PTR [ecx+12], eax
	mov	eax, DWORD PTR ___$ReturnUdt$[ebp]
	mov	esp, ebp
	pop	ebp
	ret	4
?Source@PathEdge@@QBE?AUVector2D@@XZ ENDP		; PathEdge::Source
; Function compile flags: /Odtp /RTCsu
_TEXT	ENDS
;	COMDAT ?Behavior@PathEdge@@QBEHXZ
_TEXT	SEGMENT
_this$ = -4						; size = 4
?Behavior@PathEdge@@QBEHXZ PROC				; PathEdge::Behavior, COMDAT
; _this$ = ecx

; 46   :   int      Behavior()const{return m_iBehavior;}

	push	ebp
	mov	ebp, esp
	push	ecx
	mov	DWORD PTR [ebp-4], -858993460		; ccccccccH
	mov	DWORD PTR _this$[ebp], ecx
	mov	eax, DWORD PTR _this$[ebp]
	mov	eax, DWORD PTR [eax+32]
	mov	esp, ebp
	pop	ebp
	ret	0
?Behavior@PathEdge@@QBEHXZ ENDP				; PathEdge::Behavior
_TEXT	ENDS
PUBLIC	??1?$_List_const_iterator@V?$_List_val@VPathEdge@@V?$allocator@VPathEdge@@@std@@@std@@@std@@QAE@XZ ; std::_List_const_iterator<std::_List_val<PathEdge,std::allocator<PathEdge> > >::~_List_const_iterator<std::_List_val<PathEdge,std::allocator<PathEdge> > >
; Function compile flags: /Odtp /RTCsu
;	COMDAT ??1?$_List_iterator@V?$_List_val@VPathEdge@@V?$allocator@VPathEdge@@@std@@@std@@@std@@QAE@XZ
_TEXT	SEGMENT
_this$ = -4						; size = 4
??1?$_List_iterator@V?$_List_val@VPathEdge@@V?$allocator@VPathEdge@@@std@@@std@@@std@@QAE@XZ PROC ; std::_List_iterator<std::_List_val<PathEdge,std::allocator<PathEdge> > >::~_List_iterator<std::_List_val<PathEdge,std::allocator<PathEdge> > >, COMDAT
; _this$ = ecx
	push	ebp
	mov	ebp, esp
	push	ecx
	mov	DWORD PTR [ebp-4], -858993460		; ccccccccH
	mov	DWORD PTR _this$[ebp], ecx
	mov	ecx, DWORD PTR _this$[ebp]
	call	??1?$_List_const_iterator@V?$_List_val@VPathEdge@@V?$allocator@VPathEdge@@@std@@@std@@@std@@QAE@XZ
	add	esp, 4
	cmp	ebp, esp
	call	__RTC_CheckEsp
	mov	esp, ebp
	pop	ebp
	ret	0
??1?$_List_iterator@V?$_List_val@VPathEdge@@V?$allocator@VPathEdge@@@std@@@std@@@std@@QAE@XZ ENDP ; std::_List_iterator<std::_List_val<PathEdge,std::allocator<PathEdge> > >::~_List_iterator<std::_List_val<PathEdge,std::allocator<PathEdge> > >
_TEXT	ENDS
PUBLIC	??0?$_List_unchecked_const_iterator@V?$_List_val@VPathEdge@@V?$allocator@VPathEdge@@@std@@@std@@U_Iterator_base12@2@@std@@QAE@ABV01@@Z ; std::_List_unchecked_const_iterator<std::_List_val<PathEdge,std::allocator<PathEdge> >,std::_Iterator_base12>::_List_unchecked_const_iterator<std::_List_val<PathEdge,std::allocator<PathEdge> >,std::_Iterator_base12>
; Function compile flags: /Odtp /RTCsu
;	COMDAT ??0?$_List_const_iterator@V?$_List_val@VPathEdge@@V?$allocator@VPathEdge@@@std@@@std@@@std@@QAE@ABV01@@Z
_TEXT	SEGMENT
_this$ = -4						; size = 4
___that$ = 8						; size = 4
??0?$_List_const_iterator@V?$_List_val@VPathEdge@@V?$allocator@VPathEdge@@@std@@@std@@@std@@QAE@ABV01@@Z PROC ; std::_List_const_iterator<std::_List_val<PathEdge,std::allocator<PathEdge> > >::_List_const_iterator<std::_List_val<PathEdge,std::allocator<PathEdge> > >, COMDAT
; _this$ = ecx
	push	ebp
	mov	ebp, esp
	push	ecx
	mov	DWORD PTR [ebp-4], -858993460		; ccccccccH
	mov	DWORD PTR _this$[ebp], ecx
	mov	eax, DWORD PTR ___that$[ebp]
	push	eax
	mov	ecx, DWORD PTR _this$[ebp]
	call	??0?$_List_unchecked_const_iterator@V?$_List_val@VPathEdge@@V?$allocator@VPathEdge@@@std@@@std@@U_Iterator_base12@2@@std@@QAE@ABV01@@Z
	mov	eax, DWORD PTR _this$[ebp]
	add	esp, 4
	cmp	ebp, esp
	call	__RTC_CheckEsp
	mov	esp, ebp
	pop	ebp
	ret	4
??0?$_List_const_iterator@V?$_List_val@VPathEdge@@V?$allocator@VPathEdge@@@std@@@std@@@std@@QAE@ABV01@@Z ENDP ; std::_List_const_iterator<std::_List_val<PathEdge,std::allocator<PathEdge> > >::_List_const_iterator<std::_List_val<PathEdge,std::allocator<PathEdge> > >
_TEXT	ENDS
PUBLIC	??1?$_List_unchecked_const_iterator@V?$_List_val@VPathEdge@@V?$allocator@VPathEdge@@@std@@@std@@U_Iterator_base12@2@@std@@QAE@XZ ; std::_List_unchecked_const_iterator<std::_List_val<PathEdge,std::allocator<PathEdge> >,std::_Iterator_base12>::~_List_unchecked_const_iterator<std::_List_val<PathEdge,std::allocator<PathEdge> >,std::_Iterator_base12>
; Function compile flags: /Odtp /RTCsu
;	COMDAT ??1?$_List_const_iterator@V?$_List_val@VPathEdge@@V?$allocator@VPathEdge@@@std@@@std@@@std@@QAE@XZ
_TEXT	SEGMENT
_this$ = -4						; size = 4
??1?$_List_const_iterator@V?$_List_val@VPathEdge@@V?$allocator@VPathEdge@@@std@@@std@@@std@@QAE@XZ PROC ; std::_List_const_iterator<std::_List_val<PathEdge,std::allocator<PathEdge> > >::~_List_const_iterator<std::_List_val<PathEdge,std::allocator<PathEdge> > >, COMDAT
; _this$ = ecx
	push	ebp
	mov	ebp, esp
	push	ecx
	mov	DWORD PTR [ebp-4], -858993460		; ccccccccH
	mov	DWORD PTR _this$[ebp], ecx
	mov	ecx, DWORD PTR _this$[ebp]
	call	??1?$_List_unchecked_const_iterator@V?$_List_val@VPathEdge@@V?$allocator@VPathEdge@@@std@@@std@@U_Iterator_base12@2@@std@@QAE@XZ
	add	esp, 4
	cmp	ebp, esp
	call	__RTC_CheckEsp
	mov	esp, ebp
	pop	ebp
	ret	0
??1?$_List_const_iterator@V?$_List_val@VPathEdge@@V?$allocator@VPathEdge@@@std@@@std@@@std@@QAE@XZ ENDP ; std::_List_const_iterator<std::_List_val<PathEdge,std::allocator<PathEdge> > >::~_List_const_iterator<std::_List_val<PathEdge,std::allocator<PathEdge> > >
_TEXT	ENDS
PUBLIC	??4?$_List_const_iterator@V?$_List_val@VPathEdge@@V?$allocator@VPathEdge@@@std@@@std@@@std@@QAEAAV01@ABV01@@Z ; std::_List_const_iterator<std::_List_val<PathEdge,std::allocator<PathEdge> > >::operator=
; Function compile flags: /Odtp /RTCsu
;	COMDAT ??4?$_List_iterator@V?$_List_val@VPathEdge@@V?$allocator@VPathEdge@@@std@@@std@@@std@@QAEAAV01@ABV01@@Z
_TEXT	SEGMENT
_this$ = -4						; size = 4
___that$ = 8						; size = 4
??4?$_List_iterator@V?$_List_val@VPathEdge@@V?$allocator@VPathEdge@@@std@@@std@@@std@@QAEAAV01@ABV01@@Z PROC ; std::_List_iterator<std::_List_val<PathEdge,std::allocator<PathEdge> > >::operator=, COMDAT
; _this$ = ecx
	push	ebp
	mov	ebp, esp
	push	ecx
	mov	DWORD PTR [ebp-4], -858993460		; ccccccccH
	mov	DWORD PTR _this$[ebp], ecx
	mov	eax, DWORD PTR ___that$[ebp]
	push	eax
	mov	ecx, DWORD PTR _this$[ebp]
	call	??4?$_List_const_iterator@V?$_List_val@VPathEdge@@V?$allocator@VPathEdge@@@std@@@std@@@std@@QAEAAV01@ABV01@@Z
	mov	eax, DWORD PTR _this$[ebp]
	add	esp, 4
	cmp	ebp, esp
	call	__RTC_CheckEsp
	mov	esp, ebp
	pop	ebp
	ret	4
??4?$_List_iterator@V?$_List_val@VPathEdge@@V?$allocator@VPathEdge@@@std@@@std@@@std@@QAEAAV01@ABV01@@Z ENDP ; std::_List_iterator<std::_List_val<PathEdge,std::allocator<PathEdge> > >::operator=
_TEXT	ENDS
PUBLIC	??0?$_Iterator012@Ubidirectional_iterator_tag@std@@VPathEdge@@HPBV3@ABV3@U_Iterator_base12@2@@std@@QAE@ABU01@@Z ; std::_Iterator012<std::bidirectional_iterator_tag,PathEdge,int,PathEdge const *,PathEdge const &,std::_Iterator_base12>::_Iterator012<std::bidirectional_iterator_tag,PathEdge,int,PathEdge const *,PathEdge const &,std::_Iterator_base12>
; Function compile flags: /Odtp /RTCsu
;	COMDAT ??0?$_List_unchecked_const_iterator@V?$_List_val@VPathEdge@@V?$allocator@VPathEdge@@@std@@@std@@U_Iterator_base12@2@@std@@QAE@ABV01@@Z
_TEXT	SEGMENT
_this$ = -4						; size = 4
___that$ = 8						; size = 4
??0?$_List_unchecked_const_iterator@V?$_List_val@VPathEdge@@V?$allocator@VPathEdge@@@std@@@std@@U_Iterator_base12@2@@std@@QAE@ABV01@@Z PROC ; std::_List_unchecked_const_iterator<std::_List_val<PathEdge,std::allocator<PathEdge> >,std::_Iterator_base12>::_List_unchecked_const_iterator<std::_List_val<PathEdge,std::allocator<PathEdge> >,std::_Iterator_base12>, COMDAT
; _this$ = ecx
	push	ebp
	mov	ebp, esp
	push	ecx
	mov	DWORD PTR [ebp-4], -858993460		; ccccccccH
	mov	DWORD PTR _this$[ebp], ecx
	mov	eax, DWORD PTR ___that$[ebp]
	push	eax
	mov	ecx, DWORD PTR _this$[ebp]
	call	??0?$_Iterator012@Ubidirectional_iterator_tag@std@@VPathEdge@@HPBV3@ABV3@U_Iterator_base12@2@@std@@QAE@ABU01@@Z
	mov	ecx, DWORD PTR _this$[ebp]
	mov	edx, DWORD PTR ___that$[ebp]
	mov	eax, DWORD PTR [edx+8]
	mov	DWORD PTR [ecx+8], eax
	mov	eax, DWORD PTR _this$[ebp]
	add	esp, 4
	cmp	ebp, esp
	call	__RTC_CheckEsp
	mov	esp, ebp
	pop	ebp
	ret	4
??0?$_List_unchecked_const_iterator@V?$_List_val@VPathEdge@@V?$allocator@VPathEdge@@@std@@@std@@U_Iterator_base12@2@@std@@QAE@ABV01@@Z ENDP ; std::_List_unchecked_const_iterator<std::_List_val<PathEdge,std::allocator<PathEdge> >,std::_Iterator_base12>::_List_unchecked_const_iterator<std::_List_val<PathEdge,std::allocator<PathEdge> >,std::_Iterator_base12>
_TEXT	ENDS
PUBLIC	??1?$_Iterator012@Ubidirectional_iterator_tag@std@@VPathEdge@@HPBV3@ABV3@U_Iterator_base12@2@@std@@QAE@XZ ; std::_Iterator012<std::bidirectional_iterator_tag,PathEdge,int,PathEdge const *,PathEdge const &,std::_Iterator_base12>::~_Iterator012<std::bidirectional_iterator_tag,PathEdge,int,PathEdge const *,PathEdge const &,std::_Iterator_base12>
; Function compile flags: /Odtp /RTCsu
;	COMDAT ??1?$_List_unchecked_const_iterator@V?$_List_val@VPathEdge@@V?$allocator@VPathEdge@@@std@@@std@@U_Iterator_base12@2@@std@@QAE@XZ
_TEXT	SEGMENT
_this$ = -4						; size = 4
??1?$_List_unchecked_const_iterator@V?$_List_val@VPathEdge@@V?$allocator@VPathEdge@@@std@@@std@@U_Iterator_base12@2@@std@@QAE@XZ PROC ; std::_List_unchecked_const_iterator<std::_List_val<PathEdge,std::allocator<PathEdge> >,std::_Iterator_base12>::~_List_unchecked_const_iterator<std::_List_val<PathEdge,std::allocator<PathEdge> >,std::_Iterator_base12>, COMDAT
; _this$ = ecx
	push	ebp
	mov	ebp, esp
	push	ecx
	mov	DWORD PTR [ebp-4], -858993460		; ccccccccH
	mov	DWORD PTR _this$[ebp], ecx
	mov	ecx, DWORD PTR _this$[ebp]
	call	??1?$_Iterator012@Ubidirectional_iterator_tag@std@@VPathEdge@@HPBV3@ABV3@U_Iterator_base12@2@@std@@QAE@XZ
	add	esp, 4
	cmp	ebp, esp
	call	__RTC_CheckEsp
	mov	esp, ebp
	pop	ebp
	ret	0
??1?$_List_unchecked_const_iterator@V?$_List_val@VPathEdge@@V?$allocator@VPathEdge@@@std@@@std@@U_Iterator_base12@2@@std@@QAE@XZ ENDP ; std::_List_unchecked_const_iterator<std::_List_val<PathEdge,std::allocator<PathEdge> >,std::_Iterator_base12>::~_List_unchecked_const_iterator<std::_List_val<PathEdge,std::allocator<PathEdge> >,std::_Iterator_base12>
_TEXT	ENDS
PUBLIC	??4?$_List_unchecked_const_iterator@V?$_List_val@VPathEdge@@V?$allocator@VPathEdge@@@std@@@std@@U_Iterator_base12@2@@std@@QAEAAV01@ABV01@@Z ; std::_List_unchecked_const_iterator<std::_List_val<PathEdge,std::allocator<PathEdge> >,std::_Iterator_base12>::operator=
; Function compile flags: /Odtp /RTCsu
;	COMDAT ??4?$_List_const_iterator@V?$_List_val@VPathEdge@@V?$allocator@VPathEdge@@@std@@@std@@@std@@QAEAAV01@ABV01@@Z
_TEXT	SEGMENT
_this$ = -4						; size = 4
___that$ = 8						; size = 4
??4?$_List_const_iterator@V?$_List_val@VPathEdge@@V?$allocator@VPathEdge@@@std@@@std@@@std@@QAEAAV01@ABV01@@Z PROC ; std::_List_const_iterator<std::_List_val<PathEdge,std::allocator<PathEdge> > >::operator=, COMDAT
; _this$ = ecx
	push	ebp
	mov	ebp, esp
	push	ecx
	mov	DWORD PTR [ebp-4], -858993460		; ccccccccH
	mov	DWORD PTR _this$[ebp], ecx
	mov	eax, DWORD PTR ___that$[ebp]
	push	eax
	mov	ecx, DWORD PTR _this$[ebp]
	call	??4?$_List_unchecked_const_iterator@V?$_List_val@VPathEdge@@V?$allocator@VPathEdge@@@std@@@std@@U_Iterator_base12@2@@std@@QAEAAV01@ABV01@@Z
	mov	eax, DWORD PTR _this$[ebp]
	add	esp, 4
	cmp	ebp, esp
	call	__RTC_CheckEsp
	mov	esp, ebp
	pop	ebp
	ret	4
??4?$_List_const_iterator@V?$_List_val@VPathEdge@@V?$allocator@VPathEdge@@@std@@@std@@@std@@QAEAAV01@ABV01@@Z ENDP ; std::_List_const_iterator<std::_List_val<PathEdge,std::allocator<PathEdge> > >::operator=
_TEXT	ENDS
PUBLIC	??0_Iterator_base12@std@@QAE@ABU01@@Z		; std::_Iterator_base12::_Iterator_base12
; Function compile flags: /Odtp /RTCsu
;	COMDAT ??0?$_Iterator012@Ubidirectional_iterator_tag@std@@VPathEdge@@HPBV3@ABV3@U_Iterator_base12@2@@std@@QAE@ABU01@@Z
_TEXT	SEGMENT
_this$ = -4						; size = 4
___that$ = 8						; size = 4
??0?$_Iterator012@Ubidirectional_iterator_tag@std@@VPathEdge@@HPBV3@ABV3@U_Iterator_base12@2@@std@@QAE@ABU01@@Z PROC ; std::_Iterator012<std::bidirectional_iterator_tag,PathEdge,int,PathEdge const *,PathEdge const &,std::_Iterator_base12>::_Iterator012<std::bidirectional_iterator_tag,PathEdge,int,PathEdge const *,PathEdge const &,std::_Iterator_base12>, COMDAT
; _this$ = ecx
	push	ebp
	mov	ebp, esp
	push	ecx
	mov	DWORD PTR [ebp-4], -858993460		; ccccccccH
	mov	DWORD PTR _this$[ebp], ecx
	mov	eax, DWORD PTR ___that$[ebp]
	push	eax
	mov	ecx, DWORD PTR _this$[ebp]
	call	??0_Iterator_base12@std@@QAE@ABU01@@Z	; std::_Iterator_base12::_Iterator_base12
	mov	eax, DWORD PTR _this$[ebp]
	add	esp, 4
	cmp	ebp, esp
	call	__RTC_CheckEsp
	mov	esp, ebp
	pop	ebp
	ret	4
??0?$_Iterator012@Ubidirectional_iterator_tag@std@@VPathEdge@@HPBV3@ABV3@U_Iterator_base12@2@@std@@QAE@ABU01@@Z ENDP ; std::_Iterator012<std::bidirectional_iterator_tag,PathEdge,int,PathEdge const *,PathEdge const &,std::_Iterator_base12>::_Iterator012<std::bidirectional_iterator_tag,PathEdge,int,PathEdge const *,PathEdge const &,std::_Iterator_base12>
; Function compile flags: /Odtp /RTCsu
; File c:\program files (x86)\microsoft visual studio 10.0\vc\include\xutility
_TEXT	ENDS
;	COMDAT ??0_Iterator_base12@std@@QAE@ABU01@@Z
_TEXT	SEGMENT
_this$ = -4						; size = 4
__Right$ = 8						; size = 4
??0_Iterator_base12@std@@QAE@ABU01@@Z PROC		; std::_Iterator_base12::_Iterator_base12, COMDAT
; _this$ = ecx

; 116  : 		{	// copy an iterator

	push	ebp
	mov	ebp, esp
	push	ecx
	mov	DWORD PTR [ebp-4], -858993460		; ccccccccH
	mov	DWORD PTR _this$[ebp], ecx
	mov	eax, DWORD PTR _this$[ebp]
	mov	DWORD PTR [eax], 0
	mov	ecx, DWORD PTR _this$[ebp]
	mov	DWORD PTR [ecx+4], 0

; 117  : 		*this = _Right;

	mov	edx, DWORD PTR __Right$[ebp]
	push	edx
	mov	ecx, DWORD PTR _this$[ebp]
	call	??4_Iterator_base12@std@@QAEAAU01@ABU01@@Z ; std::_Iterator_base12::operator=

; 118  : 		}

	mov	eax, DWORD PTR _this$[ebp]
	add	esp, 4
	cmp	ebp, esp
	call	__RTC_CheckEsp
	mov	esp, ebp
	pop	ebp
	ret	4
??0_Iterator_base12@std@@QAE@ABU01@@Z ENDP		; std::_Iterator_base12::_Iterator_base12
; Function compile flags: /Odtp /RTCsu
_TEXT	ENDS
;	COMDAT ??1?$_Iterator012@Ubidirectional_iterator_tag@std@@VPathEdge@@HPBV3@ABV3@U_Iterator_base12@2@@std@@QAE@XZ
_TEXT	SEGMENT
_this$ = -4						; size = 4
??1?$_Iterator012@Ubidirectional_iterator_tag@std@@VPathEdge@@HPBV3@ABV3@U_Iterator_base12@2@@std@@QAE@XZ PROC ; std::_Iterator012<std::bidirectional_iterator_tag,PathEdge,int,PathEdge const *,PathEdge const &,std::_Iterator_base12>::~_Iterator012<std::bidirectional_iterator_tag,PathEdge,int,PathEdge const *,PathEdge const &,std::_Iterator_base12>, COMDAT
; _this$ = ecx
	push	ebp
	mov	ebp, esp
	push	ecx
	mov	DWORD PTR [ebp-4], -858993460		; ccccccccH
	mov	DWORD PTR _this$[ebp], ecx
	mov	ecx, DWORD PTR _this$[ebp]
	call	??1_Iterator_base12@std@@QAE@XZ		; std::_Iterator_base12::~_Iterator_base12
	add	esp, 4
	cmp	ebp, esp
	call	__RTC_CheckEsp
	mov	esp, ebp
	pop	ebp
	ret	0
??1?$_Iterator012@Ubidirectional_iterator_tag@std@@VPathEdge@@HPBV3@ABV3@U_Iterator_base12@2@@std@@QAE@XZ ENDP ; std::_Iterator012<std::bidirectional_iterator_tag,PathEdge,int,PathEdge const *,PathEdge const &,std::_Iterator_base12>::~_Iterator012<std::bidirectional_iterator_tag,PathEdge,int,PathEdge const *,PathEdge const &,std::_Iterator_base12>
_TEXT	ENDS
PUBLIC	??4?$_Iterator012@Ubidirectional_iterator_tag@std@@VPathEdge@@HPBV3@ABV3@U_Iterator_base12@2@@std@@QAEAAU01@ABU01@@Z ; std::_Iterator012<std::bidirectional_iterator_tag,PathEdge,int,PathEdge const *,PathEdge const &,std::_Iterator_base12>::operator=
; Function compile flags: /Odtp /RTCsu
;	COMDAT ??4?$_List_unchecked_const_iterator@V?$_List_val@VPathEdge@@V?$allocator@VPathEdge@@@std@@@std@@U_Iterator_base12@2@@std@@QAEAAV01@ABV01@@Z
_TEXT	SEGMENT
_this$ = -4						; size = 4
___that$ = 8						; size = 4
??4?$_List_unchecked_const_iterator@V?$_List_val@VPathEdge@@V?$allocator@VPathEdge@@@std@@@std@@U_Iterator_base12@2@@std@@QAEAAV01@ABV01@@Z PROC ; std::_List_unchecked_const_iterator<std::_List_val<PathEdge,std::allocator<PathEdge> >,std::_Iterator_base12>::operator=, COMDAT
; _this$ = ecx
	push	ebp
	mov	ebp, esp
	push	ecx
	mov	DWORD PTR [ebp-4], -858993460		; ccccccccH
	mov	DWORD PTR _this$[ebp], ecx
	mov	eax, DWORD PTR ___that$[ebp]
	push	eax
	mov	ecx, DWORD PTR _this$[ebp]
	call	??4?$_Iterator012@Ubidirectional_iterator_tag@std@@VPathEdge@@HPBV3@ABV3@U_Iterator_base12@2@@std@@QAEAAU01@ABU01@@Z
	mov	ecx, DWORD PTR _this$[ebp]
	mov	edx, DWORD PTR ___that$[ebp]
	mov	eax, DWORD PTR [edx+8]
	mov	DWORD PTR [ecx+8], eax
	mov	eax, DWORD PTR _this$[ebp]
	add	esp, 4
	cmp	ebp, esp
	call	__RTC_CheckEsp
	mov	esp, ebp
	pop	ebp
	ret	4
??4?$_List_unchecked_const_iterator@V?$_List_val@VPathEdge@@V?$allocator@VPathEdge@@@std@@@std@@U_Iterator_base12@2@@std@@QAEAAV01@ABV01@@Z ENDP ; std::_List_unchecked_const_iterator<std::_List_val<PathEdge,std::allocator<PathEdge> >,std::_Iterator_base12>::operator=
; Function compile flags: /Odtp /RTCsu
_TEXT	ENDS
;	COMDAT ??4?$_Iterator012@Ubidirectional_iterator_tag@std@@VPathEdge@@HPBV3@ABV3@U_Iterator_base12@2@@std@@QAEAAU01@ABU01@@Z
_TEXT	SEGMENT
_this$ = -4						; size = 4
___that$ = 8						; size = 4
??4?$_Iterator012@Ubidirectional_iterator_tag@std@@VPathEdge@@HPBV3@ABV3@U_Iterator_base12@2@@std@@QAEAAU01@ABU01@@Z PROC ; std::_Iterator012<std::bidirectional_iterator_tag,PathEdge,int,PathEdge const *,PathEdge const &,std::_Iterator_base12>::operator=, COMDAT
; _this$ = ecx
	push	ebp
	mov	ebp, esp
	push	ecx
	mov	DWORD PTR [ebp-4], -858993460		; ccccccccH
	mov	DWORD PTR _this$[ebp], ecx
	mov	eax, DWORD PTR ___that$[ebp]
	push	eax
	mov	ecx, DWORD PTR _this$[ebp]
	call	??4_Iterator_base12@std@@QAEAAU01@ABU01@@Z ; std::_Iterator_base12::operator=
	mov	eax, DWORD PTR _this$[ebp]
	add	esp, 4
	cmp	ebp, esp
	call	__RTC_CheckEsp
	mov	esp, ebp
	pop	ebp
	ret	4
??4?$_Iterator012@Ubidirectional_iterator_tag@std@@VPathEdge@@HPBV3@ABV3@U_Iterator_base12@2@@std@@QAEAAU01@ABU01@@Z ENDP ; std::_Iterator012<std::bidirectional_iterator_tag,PathEdge,int,PathEdge const *,PathEdge const &,std::_Iterator_base12>::operator=
_TEXT	ENDS
PUBLIC	??F?$_List_iterator@V?$_List_val@VPathEdge@@V?$allocator@VPathEdge@@@std@@@std@@@std@@QAEAAV01@XZ ; std::_List_iterator<std::_List_val<PathEdge,std::allocator<PathEdge> > >::operator--
PUBLIC	?erase@?$list@VPathEdge@@V?$allocator@VPathEdge@@@std@@@std@@QAE?AV?$_List_iterator@V?$_List_val@VPathEdge@@V?$allocator@VPathEdge@@@std@@@std@@@2@V?$_List_const_iterator@V?$_List_val@VPathEdge@@V?$allocator@VPathEdge@@@std@@@std@@@2@0@Z ; std::list<PathEdge,std::allocator<PathEdge> >::erase
PUBLIC	??0?$_List_iterator@V?$_List_val@VPathEdge@@V?$allocator@VPathEdge@@@std@@@std@@@std@@QAE@XZ ; std::_List_iterator<std::_List_val<PathEdge,std::allocator<PathEdge> > >::_List_iterator<std::_List_val<PathEdge,std::allocator<PathEdge> > >
xdata$x	SEGMENT
__ehfuncinfo$?SmoothPathEdgesPrecise@Raven_PathPlanner@@AAEXAAV?$list@VPathEdge@@V?$allocator@VPathEdge@@@std@@@std@@@Z DD 019930522H
	DD	07H
	DD	FLAT:__unwindtable$?SmoothPathEdgesPrecise@Raven_PathPlanner@@AAEXAAV?$list@VPathEdge@@V?$allocator@VPathEdge@@@std@@@std@@@Z
	DD	2 DUP(00H)
	DD	2 DUP(00H)
	DD	00H
	DD	01H
__unwindtable$?SmoothPathEdgesPrecise@Raven_PathPlanner@@AAEXAAV?$list@VPathEdge@@V?$allocator@VPathEdge@@@std@@@std@@@Z DD 0ffffffffH
	DD	FLAT:__unwindfunclet$?SmoothPathEdgesPrecise@Raven_PathPlanner@@AAEXAAV?$list@VPathEdge@@V?$allocator@VPathEdge@@@std@@@std@@@Z$0
	DD	00H
	DD	FLAT:__unwindfunclet$?SmoothPathEdgesPrecise@Raven_PathPlanner@@AAEXAAV?$list@VPathEdge@@V?$allocator@VPathEdge@@@std@@@std@@@Z$1
	DD	01H
	DD	FLAT:__unwindfunclet$?SmoothPathEdgesPrecise@Raven_PathPlanner@@AAEXAAV?$list@VPathEdge@@V?$allocator@VPathEdge@@@std@@@std@@@Z$2
	DD	01H
	DD	FLAT:__unwindfunclet$?SmoothPathEdgesPrecise@Raven_PathPlanner@@AAEXAAV?$list@VPathEdge@@V?$allocator@VPathEdge@@@std@@@std@@@Z$3
	DD	01H
	DD	FLAT:__unwindfunclet$?SmoothPathEdgesPrecise@Raven_PathPlanner@@AAEXAAV?$list@VPathEdge@@V?$allocator@VPathEdge@@@std@@@std@@@Z$4
	DD	01H
	DD	FLAT:__unwindfunclet$?SmoothPathEdgesPrecise@Raven_PathPlanner@@AAEXAAV?$list@VPathEdge@@V?$allocator@VPathEdge@@@std@@@std@@@Z$5
	DD	01H
	DD	FLAT:__unwindfunclet$?SmoothPathEdgesPrecise@Raven_PathPlanner@@AAEXAAV?$list@VPathEdge@@V?$allocator@VPathEdge@@@std@@@std@@@Z$7
; Function compile flags: /Odtp /RTCsu
; File c:\users\alec\desktop\gameaisource\vs2010\buckland_chapter7 to 10_raven\navigation\raven_pathplanner.cpp
xdata$x	ENDS
_TEXT	SEGMENT
tv244 = -212						; size = 4
tv239 = -208						; size = 4
tv242 = -204						; size = 4
tv238 = -200						; size = 4
tv246 = -196						; size = 4
tv236 = -192						; size = 4
tv245 = -188						; size = 4
tv234 = -184						; size = 4
tv65 = -180						; size = 4
tv232 = -176						; size = 4
tv68 = -172						; size = 4
$T164579 = -168						; size = 12
$T164578 = -156						; size = 4
$T164577 = -152						; size = 4
$T164576 = -148						; size = 16
$T164575 = -132						; size = 16
$T164574 = -116						; size = 16
$T164573 = -100						; size = 12
$T164572 = -85						; size = 1
$T164571 = -84						; size = 12
$T164570 = -69						; size = 1
$T164569 = -68						; size = 12
_e2$ = -52						; size = 12
_e1$ = -32						; size = 12
_this$ = -16						; size = 4
__$EHRec$ = -12						; size = 12
_path$ = 8						; size = 4
?SmoothPathEdgesPrecise@Raven_PathPlanner@@AAEXAAV?$list@VPathEdge@@V?$allocator@VPathEdge@@@std@@@std@@@Z PROC ; Raven_PathPlanner::SmoothPathEdgesPrecise
; _this$ = ecx

; 214  : {

	push	ebp
	mov	ebp, esp
	push	-1
	push	__ehhandler$?SmoothPathEdgesPrecise@Raven_PathPlanner@@AAEXAAV?$list@VPathEdge@@V?$allocator@VPathEdge@@@std@@@std@@@Z
	mov	eax, DWORD PTR fs:0
	push	eax
	sub	esp, 200				; 000000c8H
	push	edi
	push	ecx
	lea	edi, DWORD PTR [ebp-212]
	mov	ecx, 50					; 00000032H
	mov	eax, -858993460				; ccccccccH
	rep stosd
	pop	ecx
	mov	eax, DWORD PTR ___security_cookie
	xor	eax, ebp
	push	eax
	lea	eax, DWORD PTR __$EHRec$[ebp]
	mov	DWORD PTR fs:0, eax
	mov	DWORD PTR _this$[ebp], ecx

; 215  :   //create a couple of iterators
; 216  :   Path::iterator e1, e2;

	lea	ecx, DWORD PTR _e1$[ebp]
	call	??0?$_List_iterator@V?$_List_val@VPathEdge@@V?$allocator@VPathEdge@@@std@@@std@@@std@@QAE@XZ ; std::_List_iterator<std::_List_val<PathEdge,std::allocator<PathEdge> > >::_List_iterator<std::_List_val<PathEdge,std::allocator<PathEdge> > >
	mov	DWORD PTR __$EHRec$[ebp+8], 0
	lea	ecx, DWORD PTR _e2$[ebp]
	call	??0?$_List_iterator@V?$_List_val@VPathEdge@@V?$allocator@VPathEdge@@@std@@@std@@@std@@QAE@XZ ; std::_List_iterator<std::_List_val<PathEdge,std::allocator<PathEdge> > >::_List_iterator<std::_List_val<PathEdge,std::allocator<PathEdge> > >
	mov	BYTE PTR __$EHRec$[ebp+8], 1

; 217  : 
; 218  :   //point e1 to the beginning of the path
; 219  :   e1 = path.begin();

	lea	eax, DWORD PTR $T164569[ebp]
	push	eax
	mov	ecx, DWORD PTR _path$[ebp]
	call	?begin@?$list@VPathEdge@@V?$allocator@VPathEdge@@@std@@@std@@QAE?AV?$_List_iterator@V?$_List_val@VPathEdge@@V?$allocator@VPathEdge@@@std@@@std@@@2@XZ ; std::list<PathEdge,std::allocator<PathEdge> >::begin
	mov	DWORD PTR tv68[ebp], eax
	mov	ecx, DWORD PTR tv68[ebp]
	mov	DWORD PTR tv232[ebp], ecx
	mov	BYTE PTR __$EHRec$[ebp+8], 2
	mov	edx, DWORD PTR tv232[ebp]
	push	edx
	lea	ecx, DWORD PTR _e1$[ebp]
	call	??4?$_List_iterator@V?$_List_val@VPathEdge@@V?$allocator@VPathEdge@@@std@@@std@@@std@@QAEAAV01@ABV01@@Z
	mov	BYTE PTR __$EHRec$[ebp+8], 1
	lea	ecx, DWORD PTR $T164569[ebp]
	call	??1?$_List_iterator@V?$_List_val@VPathEdge@@V?$allocator@VPathEdge@@@std@@@std@@@std@@QAE@XZ
$LN6@SmoothPath@2:

; 220  :     
; 221  :   while (e1 != path.end())

	lea	eax, DWORD PTR $T164571[ebp]
	push	eax
	mov	ecx, DWORD PTR _path$[ebp]
	call	?end@?$list@VPathEdge@@V?$allocator@VPathEdge@@@std@@@std@@QAE?AV?$_List_iterator@V?$_List_val@VPathEdge@@V?$allocator@VPathEdge@@@std@@@std@@@2@XZ ; std::list<PathEdge,std::allocator<PathEdge> >::end
	mov	DWORD PTR tv65[ebp], eax
	mov	ecx, DWORD PTR tv65[ebp]
	mov	DWORD PTR tv234[ebp], ecx
	mov	BYTE PTR __$EHRec$[ebp+8], 3
	mov	edx, DWORD PTR tv234[ebp]
	push	edx
	lea	ecx, DWORD PTR _e1$[ebp]
	call	??9?$_List_const_iterator@V?$_List_val@VPathEdge@@V?$allocator@VPathEdge@@@std@@@std@@@std@@QBE_NABV01@@Z ; std::_List_const_iterator<std::_List_val<PathEdge,std::allocator<PathEdge> > >::operator!=
	mov	BYTE PTR $T164570[ebp], al
	mov	BYTE PTR __$EHRec$[ebp+8], 1
	lea	ecx, DWORD PTR $T164571[ebp]
	call	??1?$_List_iterator@V?$_List_val@VPathEdge@@V?$allocator@VPathEdge@@@std@@@std@@@std@@QAE@XZ
	movzx	eax, BYTE PTR $T164570[ebp]
	test	eax, eax
	je	$LN5@SmoothPath@2

; 222  :   {
; 223  :     //point e2 to the edge immediately following e1
; 224  :     e2 = e1; 

	lea	ecx, DWORD PTR _e1$[ebp]
	push	ecx
	lea	ecx, DWORD PTR _e2$[ebp]
	call	??4?$_List_iterator@V?$_List_val@VPathEdge@@V?$allocator@VPathEdge@@@std@@@std@@@std@@QAEAAV01@ABV01@@Z

; 225  :     ++e2;

	lea	ecx, DWORD PTR _e2$[ebp]
	call	??E?$_List_iterator@V?$_List_val@VPathEdge@@V?$allocator@VPathEdge@@@std@@@std@@@std@@QAEAAV01@XZ ; std::_List_iterator<std::_List_val<PathEdge,std::allocator<PathEdge> > >::operator++
$LN4@SmoothPath@2:

; 226  : 
; 227  :     //while e2 is not the last edge in the path, step through the edges
; 228  :     //checking to see if the agent can move without obstruction from the 
; 229  :     //source node of e1 to the destination node of e2. If the agent can move
; 230  :     //between those positions then the any edges between e1 and e2 are
; 231  :     //replaced with a single edge.
; 232  :     while (e2 != path.end())

	lea	edx, DWORD PTR $T164573[ebp]
	push	edx
	mov	ecx, DWORD PTR _path$[ebp]
	call	?end@?$list@VPathEdge@@V?$allocator@VPathEdge@@@std@@@std@@QAE?AV?$_List_iterator@V?$_List_val@VPathEdge@@V?$allocator@VPathEdge@@@std@@@std@@@2@XZ ; std::list<PathEdge,std::allocator<PathEdge> >::end
	mov	DWORD PTR tv245[ebp], eax
	mov	eax, DWORD PTR tv245[ebp]
	mov	DWORD PTR tv236[ebp], eax
	mov	BYTE PTR __$EHRec$[ebp+8], 4
	mov	ecx, DWORD PTR tv236[ebp]
	push	ecx
	lea	ecx, DWORD PTR _e2$[ebp]
	call	??9?$_List_const_iterator@V?$_List_val@VPathEdge@@V?$allocator@VPathEdge@@@std@@@std@@@std@@QBE_NABV01@@Z ; std::_List_const_iterator<std::_List_val<PathEdge,std::allocator<PathEdge> > >::operator!=
	mov	BYTE PTR $T164572[ebp], al
	mov	BYTE PTR __$EHRec$[ebp+8], 1
	lea	ecx, DWORD PTR $T164573[ebp]
	call	??1?$_List_iterator@V?$_List_val@VPathEdge@@V?$allocator@VPathEdge@@@std@@@std@@@std@@QAE@XZ
	movzx	edx, BYTE PTR $T164572[ebp]
	test	edx, edx
	je	$LN3@SmoothPath@2

; 233  :     {
; 234  :       //check for obstruction, adjust and remove the edges accordingly
; 235  :       if ( (e2->Behavior() == EdgeType::normal) &&
; 236  :             m_pOwner->canWalkBetween(e1->Source(), e2->Destination()) )

	lea	ecx, DWORD PTR _e2$[ebp]
	call	??C?$_List_iterator@V?$_List_val@VPathEdge@@V?$allocator@VPathEdge@@@std@@@std@@@std@@QBEPAVPathEdge@@XZ ; std::_List_iterator<std::_List_val<PathEdge,std::allocator<PathEdge> > >::operator->
	mov	ecx, eax
	call	?Behavior@PathEdge@@QBEHXZ		; PathEdge::Behavior
	test	eax, eax
	jne	$LN2@SmoothPath@2
	lea	eax, DWORD PTR $T164574[ebp]
	push	eax
	lea	ecx, DWORD PTR _e2$[ebp]
	call	??C?$_List_iterator@V?$_List_val@VPathEdge@@V?$allocator@VPathEdge@@@std@@@std@@@std@@QBEPAVPathEdge@@XZ ; std::_List_iterator<std::_List_val<PathEdge,std::allocator<PathEdge> > >::operator->
	mov	ecx, eax
	call	?Destination@PathEdge@@QBE?AUVector2D@@XZ ; PathEdge::Destination
	sub	esp, 16					; 00000010H
	mov	ecx, esp
	mov	edx, DWORD PTR [eax]
	mov	DWORD PTR [ecx], edx
	mov	edx, DWORD PTR [eax+4]
	mov	DWORD PTR [ecx+4], edx
	mov	edx, DWORD PTR [eax+8]
	mov	DWORD PTR [ecx+8], edx
	mov	eax, DWORD PTR [eax+12]
	mov	DWORD PTR [ecx+12], eax
	lea	ecx, DWORD PTR $T164575[ebp]
	push	ecx
	lea	ecx, DWORD PTR _e1$[ebp]
	call	??C?$_List_iterator@V?$_List_val@VPathEdge@@V?$allocator@VPathEdge@@@std@@@std@@@std@@QBEPAVPathEdge@@XZ ; std::_List_iterator<std::_List_val<PathEdge,std::allocator<PathEdge> > >::operator->
	mov	ecx, eax
	call	?Source@PathEdge@@QBE?AUVector2D@@XZ	; PathEdge::Source
	sub	esp, 16					; 00000010H
	mov	edx, esp
	mov	ecx, DWORD PTR [eax]
	mov	DWORD PTR [edx], ecx
	mov	ecx, DWORD PTR [eax+4]
	mov	DWORD PTR [edx+4], ecx
	mov	ecx, DWORD PTR [eax+8]
	mov	DWORD PTR [edx+8], ecx
	mov	eax, DWORD PTR [eax+12]
	mov	DWORD PTR [edx+12], eax
	mov	ecx, DWORD PTR _this$[ebp]
	mov	ecx, DWORD PTR [ecx]
	call	?canWalkBetween@Raven_Bot@@QBE_NUVector2D@@0@Z ; Raven_Bot::canWalkBetween
	movzx	edx, al
	test	edx, edx
	je	$LN2@SmoothPath@2

; 237  :       {
; 238  :         e1->SetDestination(e2->Destination());

	lea	eax, DWORD PTR $T164576[ebp]
	push	eax
	lea	ecx, DWORD PTR _e2$[ebp]
	call	??C?$_List_iterator@V?$_List_val@VPathEdge@@V?$allocator@VPathEdge@@@std@@@std@@@std@@QBEPAVPathEdge@@XZ ; std::_List_iterator<std::_List_val<PathEdge,std::allocator<PathEdge> > >::operator->
	mov	ecx, eax
	call	?Destination@PathEdge@@QBE?AUVector2D@@XZ ; PathEdge::Destination
	sub	esp, 16					; 00000010H
	mov	ecx, esp
	mov	edx, DWORD PTR [eax]
	mov	DWORD PTR [ecx], edx
	mov	edx, DWORD PTR [eax+4]
	mov	DWORD PTR [ecx+4], edx
	mov	edx, DWORD PTR [eax+8]
	mov	DWORD PTR [ecx+8], edx
	mov	eax, DWORD PTR [eax+12]
	mov	DWORD PTR [ecx+12], eax
	lea	ecx, DWORD PTR _e1$[ebp]
	call	??C?$_List_iterator@V?$_List_val@VPathEdge@@V?$allocator@VPathEdge@@@std@@@std@@@std@@QBEPAVPathEdge@@XZ ; std::_List_iterator<std::_List_val<PathEdge,std::allocator<PathEdge> > >::operator->
	mov	ecx, eax
	call	?SetDestination@PathEdge@@QAEXUVector2D@@@Z ; PathEdge::SetDestination

; 239  :         e2 = path.erase(++e1, ++e2);

	lea	ecx, DWORD PTR _e2$[ebp]
	call	??E?$_List_iterator@V?$_List_val@VPathEdge@@V?$allocator@VPathEdge@@@std@@@std@@@std@@QAEAAV01@XZ ; std::_List_iterator<std::_List_val<PathEdge,std::allocator<PathEdge> > >::operator++
	sub	esp, 12					; 0000000cH
	mov	ecx, esp
	mov	DWORD PTR $T164577[ebp], esp
	push	eax
	call	??0?$_List_const_iterator@V?$_List_val@VPathEdge@@V?$allocator@VPathEdge@@@std@@@std@@@std@@QAE@ABV01@@Z
	mov	DWORD PTR tv246[ebp], eax
	mov	ecx, DWORD PTR tv246[ebp]
	mov	DWORD PTR tv238[ebp], ecx
	mov	BYTE PTR __$EHRec$[ebp+8], 5
	lea	ecx, DWORD PTR _e1$[ebp]
	call	??E?$_List_iterator@V?$_List_val@VPathEdge@@V?$allocator@VPathEdge@@@std@@@std@@@std@@QAEAAV01@XZ ; std::_List_iterator<std::_List_val<PathEdge,std::allocator<PathEdge> > >::operator++
	sub	esp, 12					; 0000000cH
	mov	ecx, esp
	mov	DWORD PTR $T164578[ebp], esp
	push	eax
	call	??0?$_List_const_iterator@V?$_List_val@VPathEdge@@V?$allocator@VPathEdge@@@std@@@std@@@std@@QAE@ABV01@@Z
	mov	DWORD PTR tv242[ebp], eax
	lea	edx, DWORD PTR $T164579[ebp]
	push	edx
	mov	BYTE PTR __$EHRec$[ebp+8], 1
	mov	ecx, DWORD PTR _path$[ebp]
	call	?erase@?$list@VPathEdge@@V?$allocator@VPathEdge@@@std@@@std@@QAE?AV?$_List_iterator@V?$_List_val@VPathEdge@@V?$allocator@VPathEdge@@@std@@@std@@@2@V?$_List_const_iterator@V?$_List_val@VPathEdge@@V?$allocator@VPathEdge@@@std@@@std@@@2@0@Z ; std::list<PathEdge,std::allocator<PathEdge> >::erase
	mov	DWORD PTR tv239[ebp], eax
	mov	eax, DWORD PTR tv239[ebp]
	mov	DWORD PTR tv244[ebp], eax
	mov	BYTE PTR __$EHRec$[ebp+8], 6
	mov	ecx, DWORD PTR tv244[ebp]
	push	ecx
	lea	ecx, DWORD PTR _e2$[ebp]
	call	??4?$_List_iterator@V?$_List_val@VPathEdge@@V?$allocator@VPathEdge@@@std@@@std@@@std@@QAEAAV01@ABV01@@Z
	mov	BYTE PTR __$EHRec$[ebp+8], 1
	lea	ecx, DWORD PTR $T164579[ebp]
	call	??1?$_List_iterator@V?$_List_val@VPathEdge@@V?$allocator@VPathEdge@@@std@@@std@@@std@@QAE@XZ

; 240  :         e1 = e2;

	lea	edx, DWORD PTR _e2$[ebp]
	push	edx
	lea	ecx, DWORD PTR _e1$[ebp]
	call	??4?$_List_iterator@V?$_List_val@VPathEdge@@V?$allocator@VPathEdge@@@std@@@std@@@std@@QAEAAV01@ABV01@@Z

; 241  :         --e1;

	lea	ecx, DWORD PTR _e1$[ebp]
	call	??F?$_List_iterator@V?$_List_val@VPathEdge@@V?$allocator@VPathEdge@@@std@@@std@@@std@@QAEAAV01@XZ ; std::_List_iterator<std::_List_val<PathEdge,std::allocator<PathEdge> > >::operator--

; 242  :       }
; 243  : 
; 244  :       else

	jmp	SHORT $LN1@SmoothPath@2
$LN2@SmoothPath@2:

; 245  :       {
; 246  :         ++e2;

	lea	ecx, DWORD PTR _e2$[ebp]
	call	??E?$_List_iterator@V?$_List_val@VPathEdge@@V?$allocator@VPathEdge@@@std@@@std@@@std@@QAEAAV01@XZ ; std::_List_iterator<std::_List_val<PathEdge,std::allocator<PathEdge> > >::operator++
$LN1@SmoothPath@2:

; 247  :       }
; 248  :     }

	jmp	$LN4@SmoothPath@2
$LN3@SmoothPath@2:

; 249  : 
; 250  :     ++e1;

	lea	ecx, DWORD PTR _e1$[ebp]
	call	??E?$_List_iterator@V?$_List_val@VPathEdge@@V?$allocator@VPathEdge@@@std@@@std@@@std@@QAEAAV01@XZ ; std::_List_iterator<std::_List_val<PathEdge,std::allocator<PathEdge> > >::operator++

; 251  :   }

	jmp	$LN6@SmoothPath@2
$LN5@SmoothPath@2:

; 252  : }

	mov	BYTE PTR __$EHRec$[ebp+8], 0
	lea	ecx, DWORD PTR _e2$[ebp]
	call	??1?$_List_iterator@V?$_List_val@VPathEdge@@V?$allocator@VPathEdge@@@std@@@std@@@std@@QAE@XZ
	mov	DWORD PTR __$EHRec$[ebp+8], -1
	lea	ecx, DWORD PTR _e1$[ebp]
	call	??1?$_List_iterator@V?$_List_val@VPathEdge@@V?$allocator@VPathEdge@@@std@@@std@@@std@@QAE@XZ
	push	edx
	mov	ecx, ebp
	push	eax
	lea	edx, DWORD PTR $LN21@SmoothPath@2
	call	@_RTC_CheckStackVars@8
	pop	eax
	pop	edx
	mov	ecx, DWORD PTR __$EHRec$[ebp]
	mov	DWORD PTR fs:0, ecx
	pop	ecx
	pop	edi
	add	esp, 212				; 000000d4H
	cmp	ebp, esp
	call	__RTC_CheckEsp
	mov	esp, ebp
	pop	ebp
	ret	4
	npad	1
$LN21@SmoothPath@2:
	DD	2
	DD	$LN20@SmoothPath@2
$LN20@SmoothPath@2:
	DD	-32					; ffffffe0H
	DD	12					; 0000000cH
	DD	$LN17@SmoothPath@2
	DD	-52					; ffffffccH
	DD	12					; 0000000cH
	DD	$LN18@SmoothPath@2
$LN18@SmoothPath@2:
	DB	101					; 00000065H
	DB	50					; 00000032H
	DB	0
$LN17@SmoothPath@2:
	DB	101					; 00000065H
	DB	49					; 00000031H
	DB	0
_TEXT	ENDS
text$x	SEGMENT
__unwindfunclet$?SmoothPathEdgesPrecise@Raven_PathPlanner@@AAEXAAV?$list@VPathEdge@@V?$allocator@VPathEdge@@@std@@@std@@@Z$0:
	lea	ecx, DWORD PTR _e1$[ebp]
	jmp	??1?$_List_iterator@V?$_List_val@VPathEdge@@V?$allocator@VPathEdge@@@std@@@std@@@std@@QAE@XZ
__unwindfunclet$?SmoothPathEdgesPrecise@Raven_PathPlanner@@AAEXAAV?$list@VPathEdge@@V?$allocator@VPathEdge@@@std@@@std@@@Z$1:
	lea	ecx, DWORD PTR _e2$[ebp]
	jmp	??1?$_List_iterator@V?$_List_val@VPathEdge@@V?$allocator@VPathEdge@@@std@@@std@@@std@@QAE@XZ
__unwindfunclet$?SmoothPathEdgesPrecise@Raven_PathPlanner@@AAEXAAV?$list@VPathEdge@@V?$allocator@VPathEdge@@@std@@@std@@@Z$2:
	lea	ecx, DWORD PTR $T164569[ebp]
	jmp	??1?$_List_iterator@V?$_List_val@VPathEdge@@V?$allocator@VPathEdge@@@std@@@std@@@std@@QAE@XZ
__unwindfunclet$?SmoothPathEdgesPrecise@Raven_PathPlanner@@AAEXAAV?$list@VPathEdge@@V?$allocator@VPathEdge@@@std@@@std@@@Z$3:
	lea	ecx, DWORD PTR $T164571[ebp]
	jmp	??1?$_List_iterator@V?$_List_val@VPathEdge@@V?$allocator@VPathEdge@@@std@@@std@@@std@@QAE@XZ
__unwindfunclet$?SmoothPathEdgesPrecise@Raven_PathPlanner@@AAEXAAV?$list@VPathEdge@@V?$allocator@VPathEdge@@@std@@@std@@@Z$4:
	lea	ecx, DWORD PTR $T164573[ebp]
	jmp	??1?$_List_iterator@V?$_List_val@VPathEdge@@V?$allocator@VPathEdge@@@std@@@std@@@std@@QAE@XZ
__unwindfunclet$?SmoothPathEdgesPrecise@Raven_PathPlanner@@AAEXAAV?$list@VPathEdge@@V?$allocator@VPathEdge@@@std@@@std@@@Z$5:
	mov	ecx, DWORD PTR $T164577[ebp]
	jmp	??1?$_List_const_iterator@V?$_List_val@VPathEdge@@V?$allocator@VPathEdge@@@std@@@std@@@std@@QAE@XZ
__unwindfunclet$?SmoothPathEdgesPrecise@Raven_PathPlanner@@AAEXAAV?$list@VPathEdge@@V?$allocator@VPathEdge@@@std@@@std@@@Z$7:
	lea	ecx, DWORD PTR $T164579[ebp]
	jmp	??1?$_List_iterator@V?$_List_val@VPathEdge@@V?$allocator@VPathEdge@@@std@@@std@@@std@@QAE@XZ
__ehhandler$?SmoothPathEdgesPrecise@Raven_PathPlanner@@AAEXAAV?$list@VPathEdge@@V?$allocator@VPathEdge@@@std@@@std@@@Z:
	mov	edx, DWORD PTR [esp+8]
	lea	eax, DWORD PTR [edx+12]
	mov	ecx, DWORD PTR [edx-208]
	xor	ecx, eax
	call	@__security_check_cookie@4
	mov	eax, OFFSET __ehfuncinfo$?SmoothPathEdgesPrecise@Raven_PathPlanner@@AAEXAAV?$list@VPathEdge@@V?$allocator@VPathEdge@@@std@@@std@@@Z
	jmp	___CxxFrameHandler3
text$x	ENDS
?SmoothPathEdgesPrecise@Raven_PathPlanner@@AAEXAAV?$list@VPathEdge@@V?$allocator@VPathEdge@@@std@@@std@@@Z ENDP ; Raven_PathPlanner::SmoothPathEdgesPrecise
PUBLIC	??1?$list@HV?$allocator@H@std@@@std@@QAE@XZ	; std::list<int,std::allocator<int> >::~list<int,std::allocator<int> >
PUBLIC	?ExtraInfo@?$NavGraphNode@PAV?$Trigger@VRaven_Bot@@@@@@QBEPAV?$Trigger@VRaven_Bot@@@@XZ ; NavGraphNode<Trigger<Raven_Bot> *>::ExtraInfo
PUBLIC	?back@?$list@HV?$allocator@H@std@@@std@@QAEAAHXZ ; std::list<int,std::allocator<int> >::back
PUBLIC	?ID@BaseGameEntity@@QBEHXZ			; BaseGameEntity::ID
PUBLIC	?CycleOnce@Raven_PathPlanner@@QBEHXZ		; Raven_PathPlanner::CycleOnce
EXTRN	?DispatchMsg@MessageDispatcher@@QAEXNHHHPAX@Z:PROC ; MessageDispatcher::DispatchMsg
EXTRN	?Instance@MessageDispatcher@@SAPAV1@XZ:PROC	; MessageDispatcher::Instance
xdata$x	SEGMENT
__unwindtable$?CycleOnce@Raven_PathPlanner@@QBEHXZ DD 0ffffffffH
	DD	FLAT:__unwindfunclet$?CycleOnce@Raven_PathPlanner@@QBEHXZ$0
__ehfuncinfo$?CycleOnce@Raven_PathPlanner@@QBEHXZ DD 019930522H
	DD	01H
	DD	FLAT:__unwindtable$?CycleOnce@Raven_PathPlanner@@QBEHXZ
	DD	2 DUP(00H)
	DD	2 DUP(00H)
	DD	00H
	DD	01H
; Function compile flags: /Odtp /RTCsu
xdata$x	ENDS
_TEXT	SEGMENT
tv175 = -48						; size = 4
tv176 = -44						; size = 4
$T164599 = -40						; size = 16
_pTrigger$145234 = -24					; size = 4
_result$ = -20						; size = 4
_this$ = -16						; size = 4
__$EHRec$ = -12						; size = 12
?CycleOnce@Raven_PathPlanner@@QBEHXZ PROC		; Raven_PathPlanner::CycleOnce
; _this$ = ecx

; 262  : {

	push	ebp
	mov	ebp, esp
	push	-1
	push	__ehhandler$?CycleOnce@Raven_PathPlanner@@QBEHXZ
	mov	eax, DWORD PTR fs:0
	push	eax
	sub	esp, 36					; 00000024H
	push	esi
	mov	eax, -858993460				; ccccccccH
	mov	DWORD PTR [ebp-48], eax
	mov	DWORD PTR [ebp-44], eax
	mov	DWORD PTR [ebp-40], eax
	mov	DWORD PTR [ebp-36], eax
	mov	DWORD PTR [ebp-32], eax
	mov	DWORD PTR [ebp-28], eax
	mov	DWORD PTR [ebp-24], eax
	mov	DWORD PTR [ebp-20], eax
	mov	DWORD PTR [ebp-16], eax
	mov	eax, DWORD PTR ___security_cookie
	xor	eax, ebp
	push	eax
	lea	eax, DWORD PTR __$EHRec$[ebp]
	mov	DWORD PTR fs:0, eax
	mov	DWORD PTR _this$[ebp], ecx

; 263  :   assert (m_pCurrentSearch && "<Raven_PathPlanner::CycleOnce>: No search object instantiated");

	mov	eax, DWORD PTR _this$[ebp]
	cmp	DWORD PTR [eax+12], 0
	je	SHORT $LN8@CycleOnce@2
	mov	ecx, OFFSET $SG145227
	test	ecx, ecx
	jne	SHORT $LN9@CycleOnce@2
$LN8@CycleOnce@2:
	push	263					; 00000107H
	push	OFFSET $SG145228
	push	OFFSET $SG145229
	call	__wassert
	add	esp, 12					; 0000000cH
$LN9@CycleOnce@2:

; 264  : 
; 265  : 
; 266  :   int result = m_pCurrentSearch->CycleOnce();

	mov	eax, DWORD PTR _this$[ebp]
	mov	ecx, DWORD PTR [eax+12]
	mov	edx, DWORD PTR _this$[ebp]
	mov	eax, DWORD PTR [edx+12]
	mov	edx, DWORD PTR [ecx]
	mov	esi, esp
	mov	ecx, eax
	mov	eax, DWORD PTR [edx+4]
	call	eax
	cmp	esi, esp
	call	__RTC_CheckEsp
	mov	DWORD PTR _result$[ebp], eax

; 267  : 
; 268  :   //let the bot know of the failure to find a path
; 269  :   if (result == target_not_found)

	cmp	DWORD PTR _result$[ebp], 1
	jne	SHORT $LN5@CycleOnce@2

; 270  :   {
; 271  :      Dispatcher->DispatchMsg(SEND_MSG_IMMEDIATELY,
; 272  :                              SENDER_ID_IRRELEVANT,
; 273  :                              m_pOwner->ID(),
; 274  :                              Msg_NoPathAvailable,
; 275  :                              NO_ADDITIONAL_INFO);

	push	0
	push	2
	mov	ecx, DWORD PTR _this$[ebp]
	mov	ecx, DWORD PTR [ecx]
	call	?ID@BaseGameEntity@@QBEHXZ		; BaseGameEntity::ID
	push	eax
	push	-1
	sub	esp, 8
	fld	QWORD PTR _SEND_MSG_IMMEDIATELY
	fstp	QWORD PTR [esp]
	call	?Instance@MessageDispatcher@@SAPAV1@XZ	; MessageDispatcher::Instance
	mov	ecx, eax
	call	?DispatchMsg@MessageDispatcher@@QAEXNHHHPAX@Z ; MessageDispatcher::DispatchMsg
	jmp	$LN1@CycleOnce@2
$LN5@CycleOnce@2:

; 276  : 
; 277  :   }
; 278  : 
; 279  :   //let the bot know a path has been found
; 280  :   else if (result == target_found)

	cmp	DWORD PTR _result$[ebp], 0
	jne	$LN3@CycleOnce@2

; 281  :   {
; 282  : 
; 283  :     //if the search was for an item type then the final node in the path will
; 284  :     //represent a giver trigger. Consequently, it's worth passing the pointer
; 285  :     //to the trigger in the extra info field of the message. (The pointer
; 286  :     //will just be NULL if no trigger)
; 287  :     void* pTrigger = 
; 288  :     m_NavGraph.GetNode(m_pCurrentSearch->GetPathToTarget().back()).ExtraInfo();

	mov	esi, esp
	lea	edx, DWORD PTR $T164599[ebp]
	push	edx
	mov	eax, DWORD PTR _this$[ebp]
	mov	ecx, DWORD PTR [eax+12]
	mov	edx, DWORD PTR _this$[ebp]
	mov	eax, DWORD PTR [edx+12]
	mov	edx, DWORD PTR [ecx]
	mov	ecx, eax
	mov	eax, DWORD PTR [edx+16]
	call	eax
	cmp	esi, esp
	call	__RTC_CheckEsp
	mov	DWORD PTR tv176[ebp], eax
	mov	ecx, DWORD PTR tv176[ebp]
	mov	DWORD PTR tv175[ebp], ecx
	mov	DWORD PTR __$EHRec$[ebp+8], 0
	mov	ecx, DWORD PTR tv175[ebp]
	call	?back@?$list@HV?$allocator@H@std@@@std@@QAEAAHXZ ; std::list<int,std::allocator<int> >::back
	mov	edx, DWORD PTR [eax]
	push	edx
	mov	eax, DWORD PTR _this$[ebp]
	mov	ecx, DWORD PTR [eax+8]
	call	?GetNode@?$SparseGraph@V?$NavGraphNode@PAV?$Trigger@VRaven_Bot@@@@@@VNavGraphEdge@@@@QBEABV?$NavGraphNode@PAV?$Trigger@VRaven_Bot@@@@@@H@Z ; SparseGraph<NavGraphNode<Trigger<Raven_Bot> *>,NavGraphEdge>::GetNode
	mov	ecx, eax
	call	?ExtraInfo@?$NavGraphNode@PAV?$Trigger@VRaven_Bot@@@@@@QBEPAV?$Trigger@VRaven_Bot@@@@XZ ; NavGraphNode<Trigger<Raven_Bot> *>::ExtraInfo
	mov	DWORD PTR _pTrigger$145234[ebp], eax
	mov	DWORD PTR __$EHRec$[ebp+8], -1
	lea	ecx, DWORD PTR $T164599[ebp]
	call	??1?$list@HV?$allocator@H@std@@@std@@QAE@XZ ; std::list<int,std::allocator<int> >::~list<int,std::allocator<int> >

; 289  : 
; 290  :     Dispatcher->DispatchMsg(SEND_MSG_IMMEDIATELY,
; 291  :                             SENDER_ID_IRRELEVANT,
; 292  :                             m_pOwner->ID(),
; 293  :                             Msg_PathReady,
; 294  :                             pTrigger);

	mov	ecx, DWORD PTR _pTrigger$145234[ebp]
	push	ecx
	push	1
	mov	edx, DWORD PTR _this$[ebp]
	mov	ecx, DWORD PTR [edx]
	call	?ID@BaseGameEntity@@QBEHXZ		; BaseGameEntity::ID
	push	eax
	push	-1
	sub	esp, 8
	fld	QWORD PTR _SEND_MSG_IMMEDIATELY
	fstp	QWORD PTR [esp]
	call	?Instance@MessageDispatcher@@SAPAV1@XZ	; MessageDispatcher::Instance
	mov	ecx, eax
	call	?DispatchMsg@MessageDispatcher@@QAEXNHHHPAX@Z ; MessageDispatcher::DispatchMsg
	jmp	SHORT $LN1@CycleOnce@2
$LN3@CycleOnce@2:

; 295  :   }
; 296  :   else if (partialComplete)

	mov	eax, DWORD PTR _this$[ebp]
	movzx	ecx, BYTE PTR [eax+16]
	test	ecx, ecx
	je	SHORT $LN1@CycleOnce@2

; 297  :   {
; 298  : 
; 299  : 	  Dispatcher->DispatchMsg(SEND_MSG_IMMEDIATELY,
; 300  : 		  SENDER_ID_IRRELEVANT,
; 301  : 		  m_pOwner->ID(),
; 302  : 		  Msg_PartialPathReady,
; 303  : 		  NO_ADDITIONAL_INFO);

	push	0
	push	9
	mov	edx, DWORD PTR _this$[ebp]
	mov	ecx, DWORD PTR [edx]
	call	?ID@BaseGameEntity@@QBEHXZ		; BaseGameEntity::ID
	push	eax
	push	-1
	sub	esp, 8
	fld	QWORD PTR _SEND_MSG_IMMEDIATELY
	fstp	QWORD PTR [esp]
	call	?Instance@MessageDispatcher@@SAPAV1@XZ	; MessageDispatcher::Instance
	mov	ecx, eax
	call	?DispatchMsg@MessageDispatcher@@QAEXNHHHPAX@Z ; MessageDispatcher::DispatchMsg
$LN1@CycleOnce@2:

; 304  :   }
; 305  : 
; 306  : 
; 307  :   return result;

	mov	eax, DWORD PTR _result$[ebp]

; 308  : }

	mov	ecx, DWORD PTR __$EHRec$[ebp]
	mov	DWORD PTR fs:0, ecx
	pop	ecx
	pop	esi
	add	esp, 48					; 00000030H
	cmp	ebp, esp
	call	__RTC_CheckEsp
	mov	esp, ebp
	pop	ebp
	ret	0
_TEXT	ENDS
text$x	SEGMENT
__unwindfunclet$?CycleOnce@Raven_PathPlanner@@QBEHXZ$0:
	lea	ecx, DWORD PTR $T164599[ebp]
	jmp	??1?$list@HV?$allocator@H@std@@@std@@QAE@XZ ; std::list<int,std::allocator<int> >::~list<int,std::allocator<int> >
__ehhandler$?CycleOnce@Raven_PathPlanner@@QBEHXZ:
	mov	edx, DWORD PTR [esp+8]
	lea	eax, DWORD PTR [edx+12]
	mov	ecx, DWORD PTR [edx-44]
	xor	ecx, eax
	call	@__security_check_cookie@4
	mov	eax, OFFSET __ehfuncinfo$?CycleOnce@Raven_PathPlanner@@QBEHXZ
	jmp	___CxxFrameHandler3
text$x	ENDS
?CycleOnce@Raven_PathPlanner@@QBEHXZ ENDP		; Raven_PathPlanner::CycleOnce
; Function compile flags: /Odtp /RTCsu
; File c:\users\alec\desktop\gameaisource\vs2010\common\game\basegameentity.h
;	COMDAT ?ID@BaseGameEntity@@QBEHXZ
_TEXT	SEGMENT
_this$ = -4						; size = 4
?ID@BaseGameEntity@@QBEHXZ PROC				; BaseGameEntity::ID, COMDAT
; _this$ = ecx

; 94   :   int          ID()const{return m_ID;}

	push	ebp
	mov	ebp, esp
	push	ecx
	mov	DWORD PTR [ebp-4], -858993460		; ccccccccH
	mov	DWORD PTR _this$[ebp], ecx
	mov	eax, DWORD PTR _this$[ebp]
	mov	eax, DWORD PTR [eax+8]
	mov	esp, ebp
	pop	ebp
	ret	0
?ID@BaseGameEntity@@QBEHXZ ENDP				; BaseGameEntity::ID
_TEXT	ENDS
PUBLIC	?Index@GraphNode@@QBEHXZ			; GraphNode::Index
PUBLIC	?Vec2DDistanceSq@@YANABUVector2D@@0@Z		; Vec2DDistanceSq
PUBLIC	?end@?$CellSpacePartition@PAV?$NavGraphNode@PAV?$Trigger@VRaven_Bot@@@@@@@@QAE_NXZ ; CellSpacePartition<NavGraphNode<Trigger<Raven_Bot> *> *>::end
PUBLIC	?next@?$CellSpacePartition@PAV?$NavGraphNode@PAV?$Trigger@VRaven_Bot@@@@@@@@QAEAAPAV?$NavGraphNode@PAV?$Trigger@VRaven_Bot@@@@@@XZ ; CellSpacePartition<NavGraphNode<Trigger<Raven_Bot> *> *>::next
PUBLIC	?begin@?$CellSpacePartition@PAV?$NavGraphNode@PAV?$Trigger@VRaven_Bot@@@@@@@@QAEAAPAV?$NavGraphNode@PAV?$Trigger@VRaven_Bot@@@@@@XZ ; CellSpacePartition<NavGraphNode<Trigger<Raven_Bot> *> *>::begin
PUBLIC	?CalculateNeighbors@?$CellSpacePartition@PAV?$NavGraphNode@PAV?$Trigger@VRaven_Bot@@@@@@@@QAEXUVector2D@@N@Z ; CellSpacePartition<NavGraphNode<Trigger<Raven_Bot> *> *>::CalculateNeighbors
PUBLIC	?GetCellSpace@Raven_Map@@QBEQAV?$CellSpacePartition@PAV?$NavGraphNode@PAV?$Trigger@VRaven_Bot@@@@@@@@XZ ; Raven_Map::GetCellSpace
PUBLIC	?GetCellSpaceNeighborhoodRange@Raven_Map@@QBENXZ ; Raven_Map::GetCellSpaceNeighborhoodRange
; Function compile flags: /Odtp /RTCsu
; File c:\users\alec\desktop\gameaisource\vs2010\buckland_chapter7 to 10_raven\navigation\raven_pathplanner.cpp
_TEXT	SEGMENT
$T164609 = -68						; size = 16
$T164608 = -52						; size = 16
_dist$146527 = -36					; size = 8
_pN$146521 = -28					; size = 4
_range$ = -24						; size = 8
_ClosestNode$ = -16					; size = 4
_ClosestSoFar$ = -12					; size = 8
_this$ = -4						; size = 4
_pos$ = 8						; size = 16
?GetClosestNodeToPosition@Raven_PathPlanner@@ABEHUVector2D@@@Z PROC ; Raven_PathPlanner::GetClosestNodeToPosition
; _this$ = ecx

; 315  : {

	push	ebp
	mov	ebp, esp
	sub	esp, 68					; 00000044H
	push	edi
	push	ecx
	lea	edi, DWORD PTR [ebp-68]
	mov	ecx, 17					; 00000011H
	mov	eax, -858993460				; ccccccccH
	rep stosd
	pop	ecx
	mov	DWORD PTR _this$[ebp], ecx

; 316  :   double ClosestSoFar = MaxDouble;

	fld	QWORD PTR _MaxDouble
	fstp	QWORD PTR _ClosestSoFar$[ebp]

; 317  :   int   ClosestNode  = no_closest_node_found;

	mov	DWORD PTR _ClosestNode$[ebp], -1

; 318  : 
; 319  :   //when the cell space is queried this the the range searched for neighboring
; 320  :   //graph nodes. This value is inversely proportional to the density of a 
; 321  :   //navigation graph (less dense = bigger values)
; 322  :   const double range = m_pOwner->GetWorld()->GetMap()->GetCellSpaceNeighborhoodRange();

	mov	eax, DWORD PTR _this$[ebp]
	mov	ecx, DWORD PTR [eax]
	call	?GetWorld@Raven_Bot@@QAEQAVRaven_Game@@XZ ; Raven_Bot::GetWorld
	mov	ecx, eax
	call	?GetMap@Raven_Game@@QAEQAVRaven_Map@@XZ	; Raven_Game::GetMap
	mov	ecx, eax
	call	?GetCellSpaceNeighborhoodRange@Raven_Map@@QBENXZ ; Raven_Map::GetCellSpaceNeighborhoodRange
	fstp	QWORD PTR _range$[ebp]

; 323  : 
; 324  :   //calculate the graph nodes that are neighboring this position
; 325  :   m_pOwner->GetWorld()->GetMap()->GetCellSpace()->CalculateNeighbors(pos, range);

	sub	esp, 8
	fld	QWORD PTR _range$[ebp]
	fstp	QWORD PTR [esp]
	sub	esp, 16					; 00000010H
	mov	ecx, esp
	mov	edx, DWORD PTR _pos$[ebp]
	mov	DWORD PTR [ecx], edx
	mov	eax, DWORD PTR _pos$[ebp+4]
	mov	DWORD PTR [ecx+4], eax
	mov	edx, DWORD PTR _pos$[ebp+8]
	mov	DWORD PTR [ecx+8], edx
	mov	eax, DWORD PTR _pos$[ebp+12]
	mov	DWORD PTR [ecx+12], eax
	mov	ecx, DWORD PTR _this$[ebp]
	mov	ecx, DWORD PTR [ecx]
	call	?GetWorld@Raven_Bot@@QAEQAVRaven_Game@@XZ ; Raven_Bot::GetWorld
	mov	ecx, eax
	call	?GetMap@Raven_Game@@QAEQAVRaven_Map@@XZ	; Raven_Game::GetMap
	mov	ecx, eax
	call	?GetCellSpace@Raven_Map@@QBEQAV?$CellSpacePartition@PAV?$NavGraphNode@PAV?$Trigger@VRaven_Bot@@@@@@@@XZ ; Raven_Map::GetCellSpace
	mov	ecx, eax
	call	?CalculateNeighbors@?$CellSpacePartition@PAV?$NavGraphNode@PAV?$Trigger@VRaven_Bot@@@@@@@@QAEXUVector2D@@N@Z ; CellSpacePartition<NavGraphNode<Trigger<Raven_Bot> *> *>::CalculateNeighbors

; 326  : 
; 327  :   //iterate through the neighbors and sum up all the position vectors
; 328  :   for (NodeType* pN = m_pOwner->GetWorld()->GetMap()->GetCellSpace()->begin();

	mov	edx, DWORD PTR _this$[ebp]
	mov	ecx, DWORD PTR [edx]
	call	?GetWorld@Raven_Bot@@QAEQAVRaven_Game@@XZ ; Raven_Bot::GetWorld
	mov	ecx, eax
	call	?GetMap@Raven_Game@@QAEQAVRaven_Map@@XZ	; Raven_Game::GetMap
	mov	ecx, eax
	call	?GetCellSpace@Raven_Map@@QBEQAV?$CellSpacePartition@PAV?$NavGraphNode@PAV?$Trigger@VRaven_Bot@@@@@@@@XZ ; Raven_Map::GetCellSpace
	mov	ecx, eax
	call	?begin@?$CellSpacePartition@PAV?$NavGraphNode@PAV?$Trigger@VRaven_Bot@@@@@@@@QAEAAPAV?$NavGraphNode@PAV?$Trigger@VRaven_Bot@@@@@@XZ ; CellSpacePartition<NavGraphNode<Trigger<Raven_Bot> *> *>::begin
	mov	eax, DWORD PTR [eax]
	mov	DWORD PTR _pN$146521[ebp], eax

; 329  :                  !m_pOwner->GetWorld()->GetMap()->GetCellSpace()->end();     

	jmp	SHORT $LN5@GetClosest
$LN4@GetClosest:

; 330  :                  pN = m_pOwner->GetWorld()->GetMap()->GetCellSpace()->next())

	mov	ecx, DWORD PTR _this$[ebp]
	mov	ecx, DWORD PTR [ecx]
	call	?GetWorld@Raven_Bot@@QAEQAVRaven_Game@@XZ ; Raven_Bot::GetWorld
	mov	ecx, eax
	call	?GetMap@Raven_Game@@QAEQAVRaven_Map@@XZ	; Raven_Game::GetMap
	mov	ecx, eax
	call	?GetCellSpace@Raven_Map@@QBEQAV?$CellSpacePartition@PAV?$NavGraphNode@PAV?$Trigger@VRaven_Bot@@@@@@@@XZ ; Raven_Map::GetCellSpace
	mov	ecx, eax
	call	?next@?$CellSpacePartition@PAV?$NavGraphNode@PAV?$Trigger@VRaven_Bot@@@@@@@@QAEAAPAV?$NavGraphNode@PAV?$Trigger@VRaven_Bot@@@@@@XZ ; CellSpacePartition<NavGraphNode<Trigger<Raven_Bot> *> *>::next
	mov	edx, DWORD PTR [eax]
	mov	DWORD PTR _pN$146521[ebp], edx
$LN5@GetClosest:
	mov	eax, DWORD PTR _this$[ebp]
	mov	ecx, DWORD PTR [eax]
	call	?GetWorld@Raven_Bot@@QAEQAVRaven_Game@@XZ ; Raven_Bot::GetWorld
	mov	ecx, eax
	call	?GetMap@Raven_Game@@QAEQAVRaven_Map@@XZ	; Raven_Game::GetMap
	mov	ecx, eax
	call	?GetCellSpace@Raven_Map@@QBEQAV?$CellSpacePartition@PAV?$NavGraphNode@PAV?$Trigger@VRaven_Bot@@@@@@@@XZ ; Raven_Map::GetCellSpace
	mov	ecx, eax
	call	?end@?$CellSpacePartition@PAV?$NavGraphNode@PAV?$Trigger@VRaven_Bot@@@@@@@@QAE_NXZ ; CellSpacePartition<NavGraphNode<Trigger<Raven_Bot> *> *>::end
	movzx	ecx, al
	test	ecx, ecx
	jne	$LN3@GetClosest

; 331  :   {
; 332  :     //if the path between this node and pos is unobstructed calculate the
; 333  :     //distance
; 334  :     if (m_pOwner->canWalkBetween(pos, pN->Pos()))

	lea	edx, DWORD PTR $T164608[ebp]
	push	edx
	mov	ecx, DWORD PTR _pN$146521[ebp]
	call	?Pos@?$NavGraphNode@PAV?$Trigger@VRaven_Bot@@@@@@QBE?AUVector2D@@XZ ; NavGraphNode<Trigger<Raven_Bot> *>::Pos
	sub	esp, 16					; 00000010H
	mov	ecx, esp
	mov	edx, DWORD PTR [eax]
	mov	DWORD PTR [ecx], edx
	mov	edx, DWORD PTR [eax+4]
	mov	DWORD PTR [ecx+4], edx
	mov	edx, DWORD PTR [eax+8]
	mov	DWORD PTR [ecx+8], edx
	mov	eax, DWORD PTR [eax+12]
	mov	DWORD PTR [ecx+12], eax
	sub	esp, 16					; 00000010H
	mov	ecx, esp
	mov	edx, DWORD PTR _pos$[ebp]
	mov	DWORD PTR [ecx], edx
	mov	eax, DWORD PTR _pos$[ebp+4]
	mov	DWORD PTR [ecx+4], eax
	mov	edx, DWORD PTR _pos$[ebp+8]
	mov	DWORD PTR [ecx+8], edx
	mov	eax, DWORD PTR _pos$[ebp+12]
	mov	DWORD PTR [ecx+12], eax
	mov	ecx, DWORD PTR _this$[ebp]
	mov	ecx, DWORD PTR [ecx]
	call	?canWalkBetween@Raven_Bot@@QBE_NUVector2D@@0@Z ; Raven_Bot::canWalkBetween
	movzx	edx, al
	test	edx, edx
	je	SHORT $LN1@GetClosest

; 335  :     {
; 336  :       double dist = Vec2DDistanceSq(pos, pN->Pos());

	lea	eax, DWORD PTR $T164609[ebp]
	push	eax
	mov	ecx, DWORD PTR _pN$146521[ebp]
	call	?Pos@?$NavGraphNode@PAV?$Trigger@VRaven_Bot@@@@@@QBE?AUVector2D@@XZ ; NavGraphNode<Trigger<Raven_Bot> *>::Pos
	push	eax
	lea	ecx, DWORD PTR _pos$[ebp]
	push	ecx
	call	?Vec2DDistanceSq@@YANABUVector2D@@0@Z	; Vec2DDistanceSq
	add	esp, 8
	fstp	QWORD PTR _dist$146527[ebp]

; 337  : 
; 338  :       //keep a record of the closest so far
; 339  :       if (dist < ClosestSoFar)

	fld	QWORD PTR _ClosestSoFar$[ebp]
	fcomp	QWORD PTR _dist$146527[ebp]
	fnstsw	ax
	test	ah, 65					; 00000041H
	jne	SHORT $LN1@GetClosest

; 340  :       {
; 341  :         ClosestSoFar = dist;

	fld	QWORD PTR _dist$146527[ebp]
	fstp	QWORD PTR _ClosestSoFar$[ebp]

; 342  :         ClosestNode  = pN->Index();

	mov	ecx, DWORD PTR _pN$146521[ebp]
	call	?Index@GraphNode@@QBEHXZ		; GraphNode::Index
	mov	DWORD PTR _ClosestNode$[ebp], eax
$LN1@GetClosest:

; 343  :       }
; 344  :     }
; 345  :   }

	jmp	$LN4@GetClosest
$LN3@GetClosest:

; 346  :    
; 347  :   return ClosestNode;

	mov	eax, DWORD PTR _ClosestNode$[ebp]

; 348  : }

	pop	edi
	add	esp, 68					; 00000044H
	cmp	ebp, esp
	call	__RTC_CheckEsp
	mov	esp, ebp
	pop	ebp
	ret	16					; 00000010H
?GetClosestNodeToPosition@Raven_PathPlanner@@ABEHUVector2D@@@Z ENDP ; Raven_PathPlanner::GetClosestNodeToPosition
; Function compile flags: /Odtp /RTCsu
; File c:\users\alec\desktop\gameaisource\vs2010\common\2d\vector2d.h
_TEXT	ENDS
;	COMDAT ?Vec2DDistanceSq@@YANABUVector2D@@0@Z
_TEXT	SEGMENT
_xSeparation$ = -16					; size = 8
_ySeparation$ = -8					; size = 8
_v1$ = 8						; size = 4
_v2$ = 12						; size = 4
?Vec2DDistanceSq@@YANABUVector2D@@0@Z PROC		; Vec2DDistanceSq, COMDAT

; 283  : {

	push	ebp
	mov	ebp, esp
	sub	esp, 16					; 00000010H
	mov	eax, -858993460				; ccccccccH
	mov	DWORD PTR [ebp-16], eax
	mov	DWORD PTR [ebp-12], eax
	mov	DWORD PTR [ebp-8], eax
	mov	DWORD PTR [ebp-4], eax

; 284  : 
; 285  :   double ySeparation = v2.y - v1.y;

	mov	eax, DWORD PTR _v2$[ebp]
	mov	ecx, DWORD PTR _v1$[ebp]
	fld	QWORD PTR [eax+8]
	fsub	QWORD PTR [ecx+8]
	fstp	QWORD PTR _ySeparation$[ebp]

; 286  :   double xSeparation = v2.x - v1.x;

	mov	edx, DWORD PTR _v2$[ebp]
	mov	eax, DWORD PTR _v1$[ebp]
	fld	QWORD PTR [edx]
	fsub	QWORD PTR [eax]
	fstp	QWORD PTR _xSeparation$[ebp]

; 287  : 
; 288  :   return ySeparation*ySeparation + xSeparation*xSeparation;

	fld	QWORD PTR _ySeparation$[ebp]
	fmul	QWORD PTR _ySeparation$[ebp]
	fld	QWORD PTR _xSeparation$[ebp]
	fmul	QWORD PTR _xSeparation$[ebp]
	faddp	ST(1), ST(0)

; 289  : }

	mov	esp, ebp
	pop	ebp
	ret	0
?Vec2DDistanceSq@@YANABUVector2D@@0@Z ENDP		; Vec2DDistanceSq
; Function compile flags: /Odtp /RTCsu
; File c:\users\alec\desktop\gameaisource\vs2010\common\graph\graphnodetypes.h
_TEXT	ENDS
;	COMDAT ?Index@GraphNode@@QBEHXZ
_TEXT	SEGMENT
_this$ = -4						; size = 4
?Index@GraphNode@@QBEHXZ PROC				; GraphNode::Index, COMDAT
; _this$ = ecx

; 35   :   int  Index()const{return m_iIndex;}

	push	ebp
	mov	ebp, esp
	push	ecx
	mov	DWORD PTR [ebp-4], -858993460		; ccccccccH
	mov	DWORD PTR _this$[ebp], ecx
	mov	eax, DWORD PTR _this$[ebp]
	mov	eax, DWORD PTR [eax+4]
	mov	esp, ebp
	pop	ebp
	ret	0
?Index@GraphNode@@QBEHXZ ENDP				; GraphNode::Index
; Function compile flags: /Odtp /RTCsu
; File c:\users\alec\desktop\gameaisource\vs2010\buckland_chapter7 to 10_raven\raven_map.h
_TEXT	ENDS
;	COMDAT ?GetCellSpace@Raven_Map@@QBEQAV?$CellSpacePartition@PAV?$NavGraphNode@PAV?$Trigger@VRaven_Bot@@@@@@@@XZ
_TEXT	SEGMENT
_this$ = -4						; size = 4
?GetCellSpace@Raven_Map@@QBEQAV?$CellSpacePartition@PAV?$NavGraphNode@PAV?$Trigger@VRaven_Bot@@@@@@@@XZ PROC ; Raven_Map::GetCellSpace, COMDAT
; _this$ = ecx

; 119  :   CellSpace* const                   GetCellSpace()const{return m_pSpacePartition;}

	push	ebp
	mov	ebp, esp
	push	ecx
	mov	DWORD PTR [ebp-4], -858993460		; ccccccccH
	mov	DWORD PTR _this$[ebp], ecx
	mov	eax, DWORD PTR _this$[ebp]
	mov	eax, DWORD PTR [eax+112]
	mov	esp, ebp
	pop	ebp
	ret	0
?GetCellSpace@Raven_Map@@QBEQAV?$CellSpacePartition@PAV?$NavGraphNode@PAV?$Trigger@VRaven_Bot@@@@@@@@XZ ENDP ; Raven_Map::GetCellSpace
; Function compile flags: /Odtp /RTCsu
_TEXT	ENDS
;	COMDAT ?GetCellSpaceNeighborhoodRange@Raven_Map@@QBENXZ
_TEXT	SEGMENT
_this$ = -4						; size = 4
?GetCellSpaceNeighborhoodRange@Raven_Map@@QBENXZ PROC	; Raven_Map::GetCellSpaceNeighborhoodRange, COMDAT
; _this$ = ecx

; 124  :   double                             GetCellSpaceNeighborhoodRange()const{return m_dCellSpaceNeighborhoodRange;}

	push	ebp
	mov	ebp, esp
	push	ecx
	mov	DWORD PTR [ebp-4], -858993460		; ccccccccH
	mov	DWORD PTR _this$[ebp], ecx
	mov	eax, DWORD PTR _this$[ebp]
	fld	QWORD PTR [eax+120]
	mov	esp, ebp
	pop	ebp
	ret	0
?GetCellSpaceNeighborhoodRange@Raven_Map@@QBENXZ ENDP	; Raven_Map::GetCellSpaceNeighborhoodRange
_TEXT	ENDS
PUBLIC	?Register@?$PathManager@VRaven_PathPlanner@@@@QAEXPAVRaven_PathPlanner@@@Z ; PathManager<Raven_PathPlanner>::Register
PUBLIC	??0?$Graph_SearchAStar_TS@V?$SparseGraph@V?$NavGraphNode@PAV?$Trigger@VRaven_Bot@@@@@@VNavGraphEdge@@@@VHeuristic_Euclid@@@@QAE@ABV?$SparseGraph@V?$NavGraphNode@PAV?$Trigger@VRaven_Bot@@@@@@VNavGraphEdge@@@@HH@Z ; Graph_SearchAStar_TS<SparseGraph<NavGraphNode<Trigger<Raven_Bot> *>,NavGraphEdge>,Heuristic_Euclid>::Graph_SearchAStar_TS<SparseGraph<NavGraphNode<Trigger<Raven_Bot> *>,NavGraphEdge>,Heuristic_Euclid>
PUBLIC	?RequestPathToPosition@Raven_PathPlanner@@QAE_NUVector2D@@@Z ; Raven_PathPlanner::RequestPathToPosition
EXTRN	??3@YAXPAX@Z:PROC				; operator delete
EXTRN	??2@YAPAXI@Z:PROC				; operator new
EXTRN	?canWalkTo@Raven_Bot@@QBE_NUVector2D@@@Z:PROC	; Raven_Bot::canWalkTo
xdata$x	SEGMENT
__unwindtable$?RequestPathToPosition@Raven_PathPlanner@@QAE_NUVector2D@@@Z DD 0ffffffffH
	DD	FLAT:__unwindfunclet$?RequestPathToPosition@Raven_PathPlanner@@QAE_NUVector2D@@@Z$0
__ehfuncinfo$?RequestPathToPosition@Raven_PathPlanner@@QAE_NUVector2D@@@Z DD 019930522H
	DD	01H
	DD	FLAT:__unwindtable$?RequestPathToPosition@Raven_PathPlanner@@QAE_NUVector2D@@@Z
	DD	2 DUP(00H)
	DD	2 DUP(00H)
	DD	00H
	DD	01H
; Function compile flags: /Odtp /RTCsu
; File c:\users\alec\desktop\gameaisource\vs2010\buckland_chapter7 to 10_raven\navigation\raven_pathplanner.cpp
xdata$x	ENDS
_TEXT	SEGMENT
tv133 = -52						; size = 4
$T164621 = -48						; size = 4
$T164620 = -44						; size = 4
$T164619 = -40						; size = 16
_ClosestNodeToTarget$ = -24				; size = 4
_ClosestNodeToBot$ = -20				; size = 4
_this$ = -16						; size = 4
__$EHRec$ = -12						; size = 12
_TargetPos$ = 8						; size = 16
?RequestPathToPosition@Raven_PathPlanner@@QAE_NUVector2D@@@Z PROC ; Raven_PathPlanner::RequestPathToPosition
; _this$ = ecx

; 365  : { 

	push	ebp
	mov	ebp, esp
	push	-1
	push	__ehhandler$?RequestPathToPosition@Raven_PathPlanner@@QAE_NUVector2D@@@Z
	mov	eax, DWORD PTR fs:0
	push	eax
	sub	esp, 40					; 00000028H
	push	edi
	push	ecx
	lea	edi, DWORD PTR [ebp-52]
	mov	ecx, 10					; 0000000aH
	mov	eax, -858993460				; ccccccccH
	rep stosd
	pop	ecx
	mov	eax, DWORD PTR ___security_cookie
	xor	eax, ebp
	push	eax
	lea	eax, DWORD PTR __$EHRec$[ebp]
	mov	DWORD PTR fs:0, eax
	mov	DWORD PTR _this$[ebp], ecx

; 366  :   #ifdef SHOW_NAVINFO
; 367  :     debug_con << "------------------------------------------------" << "";
; 368  : #endif
; 369  :   GetReadyForNewSearch();

	mov	ecx, DWORD PTR _this$[ebp]
	call	?GetReadyForNewSearch@Raven_PathPlanner@@AAEXXZ ; Raven_PathPlanner::GetReadyForNewSearch

; 370  : 
; 371  :   //make a note of the target position.
; 372  :   m_vDestinationPos = TargetPos;

	mov	eax, DWORD PTR _this$[ebp]
	add	eax, 24					; 00000018H
	mov	ecx, DWORD PTR _TargetPos$[ebp]
	mov	DWORD PTR [eax], ecx
	mov	edx, DWORD PTR _TargetPos$[ebp+4]
	mov	DWORD PTR [eax+4], edx
	mov	ecx, DWORD PTR _TargetPos$[ebp+8]
	mov	DWORD PTR [eax+8], ecx
	mov	edx, DWORD PTR _TargetPos$[ebp+12]
	mov	DWORD PTR [eax+12], edx

; 373  : 
; 374  :   //if the target is walkable from the bot's position a path does not need to
; 375  :   //be calculated, the bot can go straight to the position by ARRIVING at
; 376  :   //the current waypoint
; 377  :   if (m_pOwner->canWalkTo(TargetPos))

	sub	esp, 16					; 00000010H
	mov	eax, esp
	mov	ecx, DWORD PTR _TargetPos$[ebp]
	mov	DWORD PTR [eax], ecx
	mov	edx, DWORD PTR _TargetPos$[ebp+4]
	mov	DWORD PTR [eax+4], edx
	mov	ecx, DWORD PTR _TargetPos$[ebp+8]
	mov	DWORD PTR [eax+8], ecx
	mov	edx, DWORD PTR _TargetPos$[ebp+12]
	mov	DWORD PTR [eax+12], edx
	mov	eax, DWORD PTR _this$[ebp]
	mov	ecx, DWORD PTR [eax]
	call	?canWalkTo@Raven_Bot@@QBE_NUVector2D@@@Z ; Raven_Bot::canWalkTo
	movzx	ecx, al
	test	ecx, ecx
	je	SHORT $LN3@RequestPat

; 378  :   { 
; 379  :     return true;

	mov	al, 1
	jmp	$LN4@RequestPat
$LN3@RequestPat:

; 380  :   }
; 381  :   
; 382  :   //find the closest visible node to the bots position
; 383  :   int ClosestNodeToBot = GetClosestNodeToPosition(m_pOwner->Pos());

	lea	edx, DWORD PTR $T164619[ebp]
	push	edx
	mov	eax, DWORD PTR _this$[ebp]
	mov	ecx, DWORD PTR [eax]
	call	?Pos@BaseGameEntity@@QBE?AUVector2D@@XZ	; BaseGameEntity::Pos
	sub	esp, 16					; 00000010H
	mov	ecx, esp
	mov	edx, DWORD PTR [eax]
	mov	DWORD PTR [ecx], edx
	mov	edx, DWORD PTR [eax+4]
	mov	DWORD PTR [ecx+4], edx
	mov	edx, DWORD PTR [eax+8]
	mov	DWORD PTR [ecx+8], edx
	mov	eax, DWORD PTR [eax+12]
	mov	DWORD PTR [ecx+12], eax
	mov	ecx, DWORD PTR _this$[ebp]
	call	?GetClosestNodeToPosition@Raven_PathPlanner@@ABEHUVector2D@@@Z ; Raven_PathPlanner::GetClosestNodeToPosition
	mov	DWORD PTR _ClosestNodeToBot$[ebp], eax

; 384  : 
; 385  :   //remove the destination node from the list and return false if no visible
; 386  :   //node found. This will occur if the navgraph is badly designed or if the bot
; 387  :   //has managed to get itself *inside* the geometry (surrounded by walls),
; 388  :   //or an obstacle.
; 389  :   if (ClosestNodeToBot == no_closest_node_found)

	cmp	DWORD PTR _ClosestNodeToBot$[ebp], -1
	jne	SHORT $LN2@RequestPat

; 390  :   { 
; 391  : #ifdef SHOW_NAVINFO
; 392  :     debug_con << "No closest node to bot found!" << "";
; 393  : #endif
; 394  : 
; 395  :     return false; 

	xor	al, al
	jmp	$LN4@RequestPat
$LN2@RequestPat:

; 396  :   }
; 397  : 
; 398  :   #ifdef SHOW_NAVINFO
; 399  :     debug_con << "Closest node to bot is " << ClosestNodeToBot << "";
; 400  : #endif
; 401  : 
; 402  :   //find the closest visible node to the target position
; 403  :   int ClosestNodeToTarget = GetClosestNodeToPosition(TargetPos);

	sub	esp, 16					; 00000010H
	mov	ecx, esp
	mov	edx, DWORD PTR _TargetPos$[ebp]
	mov	DWORD PTR [ecx], edx
	mov	eax, DWORD PTR _TargetPos$[ebp+4]
	mov	DWORD PTR [ecx+4], eax
	mov	edx, DWORD PTR _TargetPos$[ebp+8]
	mov	DWORD PTR [ecx+8], edx
	mov	eax, DWORD PTR _TargetPos$[ebp+12]
	mov	DWORD PTR [ecx+12], eax
	mov	ecx, DWORD PTR _this$[ebp]
	call	?GetClosestNodeToPosition@Raven_PathPlanner@@ABEHUVector2D@@@Z ; Raven_PathPlanner::GetClosestNodeToPosition
	mov	DWORD PTR _ClosestNodeToTarget$[ebp], eax

; 404  :   
; 405  :   //return false if there is a problem locating a visible node from the target.
; 406  :   //This sort of thing occurs much more frequently than the above. For
; 407  :   //example, if the user clicks inside an area bounded by walls or inside an
; 408  :   //object.
; 409  :   if (ClosestNodeToTarget == no_closest_node_found)

	cmp	DWORD PTR _ClosestNodeToTarget$[ebp], -1
	jne	SHORT $LN1@RequestPat

; 410  :   { 
; 411  : #ifdef SHOW_NAVINFO
; 412  :     debug_con << "No closest node to target (" << ClosestNodeToTarget << ") found!" << "";
; 413  : #endif
; 414  : 
; 415  :     return false; 

	xor	al, al
	jmp	SHORT $LN4@RequestPat
$LN1@RequestPat:

; 416  :   }
; 417  : 
; 418  :   #ifdef SHOW_NAVINFO
; 419  :     debug_con << "Closest node to target is " << ClosestNodeToTarget << "";
; 420  : #endif
; 421  : 
; 422  :   //create an instance of a the distributed A* search class
; 423  :   typedef Graph_SearchAStar_TS<Raven_Map::NavGraph, Heuristic_Euclid> AStar;
; 424  :    
; 425  :   m_pCurrentSearch = new AStar(m_NavGraph,
; 426  :                                ClosestNodeToBot,
; 427  :                                ClosestNodeToTarget);

	push	104					; 00000068H
	call	??2@YAPAXI@Z				; operator new
	add	esp, 4
	mov	DWORD PTR $T164621[ebp], eax
	mov	DWORD PTR __$EHRec$[ebp+8], 0
	cmp	DWORD PTR $T164621[ebp], 0
	je	SHORT $LN6@RequestPat
	mov	ecx, DWORD PTR _ClosestNodeToTarget$[ebp]
	push	ecx
	mov	edx, DWORD PTR _ClosestNodeToBot$[ebp]
	push	edx
	mov	eax, DWORD PTR _this$[ebp]
	mov	ecx, DWORD PTR [eax+8]
	push	ecx
	mov	ecx, DWORD PTR $T164621[ebp]
	call	??0?$Graph_SearchAStar_TS@V?$SparseGraph@V?$NavGraphNode@PAV?$Trigger@VRaven_Bot@@@@@@VNavGraphEdge@@@@VHeuristic_Euclid@@@@QAE@ABV?$SparseGraph@V?$NavGraphNode@PAV?$Trigger@VRaven_Bot@@@@@@VNavGraphEdge@@@@HH@Z ; Graph_SearchAStar_TS<SparseGraph<NavGraphNode<Trigger<Raven_Bot> *>,NavGraphEdge>,Heuristic_Euclid>::Graph_SearchAStar_TS<SparseGraph<NavGraphNode<Trigger<Raven_Bot> *>,NavGraphEdge>,Heuristic_Euclid>
	mov	DWORD PTR tv133[ebp], eax
	jmp	SHORT $LN7@RequestPat
$LN6@RequestPat:
	mov	DWORD PTR tv133[ebp], 0
$LN7@RequestPat:
	mov	edx, DWORD PTR tv133[ebp]
	mov	DWORD PTR $T164620[ebp], edx
	mov	DWORD PTR __$EHRec$[ebp+8], -1
	mov	eax, DWORD PTR _this$[ebp]
	mov	ecx, DWORD PTR $T164620[ebp]
	mov	DWORD PTR [eax+12], ecx

; 428  : 
; 429  :   //and register the search with the path manager
; 430  :   m_pOwner->GetWorld()->GetPathManager()->Register(this);

	mov	edx, DWORD PTR _this$[ebp]
	push	edx
	mov	eax, DWORD PTR _this$[ebp]
	mov	ecx, DWORD PTR [eax]
	call	?GetWorld@Raven_Bot@@QAEQAVRaven_Game@@XZ ; Raven_Bot::GetWorld
	mov	ecx, eax
	call	?GetPathManager@Raven_Game@@QAEQAV?$PathManager@VRaven_PathPlanner@@@@XZ ; Raven_Game::GetPathManager
	mov	ecx, eax
	call	?Register@?$PathManager@VRaven_PathPlanner@@@@QAEXPAVRaven_PathPlanner@@@Z ; PathManager<Raven_PathPlanner>::Register

; 431  : 
; 432  :   return true;

	mov	al, 1
$LN4@RequestPat:

; 433  : }

	mov	ecx, DWORD PTR __$EHRec$[ebp]
	mov	DWORD PTR fs:0, ecx
	pop	ecx
	pop	edi
	add	esp, 52					; 00000034H
	cmp	ebp, esp
	call	__RTC_CheckEsp
	mov	esp, ebp
	pop	ebp
	ret	16					; 00000010H
_TEXT	ENDS
text$x	SEGMENT
__unwindfunclet$?RequestPathToPosition@Raven_PathPlanner@@QAE_NUVector2D@@@Z$0:
	mov	eax, DWORD PTR $T164621[ebp]
	push	eax
	call	??3@YAXPAX@Z				; operator delete
	pop	ecx
	ret	0
__ehhandler$?RequestPathToPosition@Raven_PathPlanner@@QAE_NUVector2D@@@Z:
	mov	edx, DWORD PTR [esp+8]
	lea	eax, DWORD PTR [edx+12]
	mov	ecx, DWORD PTR [edx-48]
	xor	ecx, eax
	call	@__security_check_cookie@4
	mov	eax, OFFSET __ehfuncinfo$?RequestPathToPosition@Raven_PathPlanner@@QAE_NUVector2D@@@Z
	jmp	___CxxFrameHandler3
text$x	ENDS
?RequestPathToPosition@Raven_PathPlanner@@QAE_NUVector2D@@@Z ENDP ; Raven_PathPlanner::RequestPathToPosition
PUBLIC	??0?$Graph_SearchDijkstras_TS@V?$SparseGraph@V?$NavGraphNode@PAV?$Trigger@VRaven_Bot@@@@@@VNavGraphEdge@@@@V?$FindActiveTrigger@V?$Trigger@VRaven_Bot@@@@@@@@QAE@ABV?$SparseGraph@V?$NavGraphNode@PAV?$Trigger@VRaven_Bot@@@@@@VNavGraphEdge@@@@HH@Z ; Graph_SearchDijkstras_TS<SparseGraph<NavGraphNode<Trigger<Raven_Bot> *>,NavGraphEdge>,FindActiveTrigger<Trigger<Raven_Bot> > >::Graph_SearchDijkstras_TS<SparseGraph<NavGraphNode<Trigger<Raven_Bot> *>,NavGraphEdge>,FindActiveTrigger<Trigger<Raven_Bot> > >
PUBLIC	?RequestPathToItem@Raven_PathPlanner@@QAE_NI@Z	; Raven_PathPlanner::RequestPathToItem
xdata$x	SEGMENT
__unwindtable$?RequestPathToItem@Raven_PathPlanner@@QAE_NI@Z DD 0ffffffffH
	DD	FLAT:__unwindfunclet$?RequestPathToItem@Raven_PathPlanner@@QAE_NI@Z$0
__ehfuncinfo$?RequestPathToItem@Raven_PathPlanner@@QAE_NI@Z DD 019930522H
	DD	01H
	DD	FLAT:__unwindtable$?RequestPathToItem@Raven_PathPlanner@@QAE_NI@Z
	DD	2 DUP(00H)
	DD	2 DUP(00H)
	DD	00H
	DD	01H
; Function compile flags: /Odtp /RTCsu
xdata$x	ENDS
_TEXT	SEGMENT
tv91 = -48						; size = 4
$T164632 = -44						; size = 4
$T164631 = -40						; size = 4
$T164630 = -36						; size = 16
_ClosestNodeToBot$ = -20				; size = 4
_this$ = -16						; size = 4
__$EHRec$ = -12						; size = 12
_ItemType$ = 8						; size = 4
?RequestPathToItem@Raven_PathPlanner@@QAE_NI@Z PROC	; Raven_PathPlanner::RequestPathToItem
; _this$ = ecx

; 444  : {    

	push	ebp
	mov	ebp, esp
	push	-1
	push	__ehhandler$?RequestPathToItem@Raven_PathPlanner@@QAE_NI@Z
	mov	eax, DWORD PTR fs:0
	push	eax
	sub	esp, 36					; 00000024H
	mov	eax, -858993460				; ccccccccH
	mov	DWORD PTR [ebp-48], eax
	mov	DWORD PTR [ebp-44], eax
	mov	DWORD PTR [ebp-40], eax
	mov	DWORD PTR [ebp-36], eax
	mov	DWORD PTR [ebp-32], eax
	mov	DWORD PTR [ebp-28], eax
	mov	DWORD PTR [ebp-24], eax
	mov	DWORD PTR [ebp-20], eax
	mov	DWORD PTR [ebp-16], eax
	mov	eax, DWORD PTR ___security_cookie
	xor	eax, ebp
	push	eax
	lea	eax, DWORD PTR __$EHRec$[ebp]
	mov	DWORD PTR fs:0, eax
	mov	DWORD PTR _this$[ebp], ecx

; 445  :   //clear the waypoint list and delete any active search
; 446  :   GetReadyForNewSearch();

	mov	ecx, DWORD PTR _this$[ebp]
	call	?GetReadyForNewSearch@Raven_PathPlanner@@AAEXXZ ; Raven_PathPlanner::GetReadyForNewSearch

; 447  : 
; 448  :   //find the closest visible node to the bots position
; 449  :   int ClosestNodeToBot = GetClosestNodeToPosition(m_pOwner->Pos());

	lea	eax, DWORD PTR $T164630[ebp]
	push	eax
	mov	ecx, DWORD PTR _this$[ebp]
	mov	ecx, DWORD PTR [ecx]
	call	?Pos@BaseGameEntity@@QBE?AUVector2D@@XZ	; BaseGameEntity::Pos
	sub	esp, 16					; 00000010H
	mov	edx, esp
	mov	ecx, DWORD PTR [eax]
	mov	DWORD PTR [edx], ecx
	mov	ecx, DWORD PTR [eax+4]
	mov	DWORD PTR [edx+4], ecx
	mov	ecx, DWORD PTR [eax+8]
	mov	DWORD PTR [edx+8], ecx
	mov	eax, DWORD PTR [eax+12]
	mov	DWORD PTR [edx+12], eax
	mov	ecx, DWORD PTR _this$[ebp]
	call	?GetClosestNodeToPosition@Raven_PathPlanner@@ABEHUVector2D@@@Z ; Raven_PathPlanner::GetClosestNodeToPosition
	mov	DWORD PTR _ClosestNodeToBot$[ebp], eax

; 450  : 
; 451  :   //remove the destination node from the list and return false if no visible
; 452  :   //node found. This will occur if the navgraph is badly designed or if the bot
; 453  :   //has managed to get itself *inside* the geometry (surrounded by walls),
; 454  :   //or an obstacle
; 455  :   if (ClosestNodeToBot == no_closest_node_found)

	cmp	DWORD PTR _ClosestNodeToBot$[ebp], -1
	jne	SHORT $LN1@RequestPat@2

; 456  :   { 
; 457  : #ifdef SHOW_NAVINFO
; 458  :     debug_con << "No closest node to bot found!" << "";
; 459  : #endif
; 460  : 
; 461  :     return false; 

	xor	al, al
	jmp	SHORT $LN2@RequestPat@2
$LN1@RequestPat@2:

; 462  :   }
; 463  : 
; 464  :   //create an instance of the search algorithm
; 465  :   typedef FindActiveTrigger<Trigger<Raven_Bot> > t_con; 
; 466  :   typedef Graph_SearchDijkstras_TS<Raven_Map::NavGraph, t_con> DijSearch;
; 467  :   
; 468  :   m_pCurrentSearch = new DijSearch(m_NavGraph,
; 469  :                                    ClosestNodeToBot,
; 470  :                                    ItemType);  

	push	84					; 00000054H
	call	??2@YAPAXI@Z				; operator new
	add	esp, 4
	mov	DWORD PTR $T164632[ebp], eax
	mov	DWORD PTR __$EHRec$[ebp+8], 0
	cmp	DWORD PTR $T164632[ebp], 0
	je	SHORT $LN4@RequestPat@2
	mov	ecx, DWORD PTR _ItemType$[ebp]
	push	ecx
	mov	edx, DWORD PTR _ClosestNodeToBot$[ebp]
	push	edx
	mov	eax, DWORD PTR _this$[ebp]
	mov	ecx, DWORD PTR [eax+8]
	push	ecx
	mov	ecx, DWORD PTR $T164632[ebp]
	call	??0?$Graph_SearchDijkstras_TS@V?$SparseGraph@V?$NavGraphNode@PAV?$Trigger@VRaven_Bot@@@@@@VNavGraphEdge@@@@V?$FindActiveTrigger@V?$Trigger@VRaven_Bot@@@@@@@@QAE@ABV?$SparseGraph@V?$NavGraphNode@PAV?$Trigger@VRaven_Bot@@@@@@VNavGraphEdge@@@@HH@Z ; Graph_SearchDijkstras_TS<SparseGraph<NavGraphNode<Trigger<Raven_Bot> *>,NavGraphEdge>,FindActiveTrigger<Trigger<Raven_Bot> > >::Graph_SearchDijkstras_TS<SparseGraph<NavGraphNode<Trigger<Raven_Bot> *>,NavGraphEdge>,FindActiveTrigger<Trigger<Raven_Bot> > >
	mov	DWORD PTR tv91[ebp], eax
	jmp	SHORT $LN5@RequestPat@2
$LN4@RequestPat@2:
	mov	DWORD PTR tv91[ebp], 0
$LN5@RequestPat@2:
	mov	edx, DWORD PTR tv91[ebp]
	mov	DWORD PTR $T164631[ebp], edx
	mov	DWORD PTR __$EHRec$[ebp+8], -1
	mov	eax, DWORD PTR _this$[ebp]
	mov	ecx, DWORD PTR $T164631[ebp]
	mov	DWORD PTR [eax+12], ecx

; 471  : 
; 472  :   //register the search with the path manager
; 473  :   m_pOwner->GetWorld()->GetPathManager()->Register(this);

	mov	edx, DWORD PTR _this$[ebp]
	push	edx
	mov	eax, DWORD PTR _this$[ebp]
	mov	ecx, DWORD PTR [eax]
	call	?GetWorld@Raven_Bot@@QAEQAVRaven_Game@@XZ ; Raven_Bot::GetWorld
	mov	ecx, eax
	call	?GetPathManager@Raven_Game@@QAEQAV?$PathManager@VRaven_PathPlanner@@@@XZ ; Raven_Game::GetPathManager
	mov	ecx, eax
	call	?Register@?$PathManager@VRaven_PathPlanner@@@@QAEXPAVRaven_PathPlanner@@@Z ; PathManager<Raven_PathPlanner>::Register

; 474  : 
; 475  :   return true;

	mov	al, 1
$LN2@RequestPat@2:

; 476  : }

	mov	ecx, DWORD PTR __$EHRec$[ebp]
	mov	DWORD PTR fs:0, ecx
	pop	ecx
	add	esp, 48					; 00000030H
	cmp	ebp, esp
	call	__RTC_CheckEsp
	mov	esp, ebp
	pop	ebp
	ret	4
_TEXT	ENDS
text$x	SEGMENT
__unwindfunclet$?RequestPathToItem@Raven_PathPlanner@@QAE_NI@Z$0:
	mov	eax, DWORD PTR $T164632[ebp]
	push	eax
	call	??3@YAXPAX@Z				; operator delete
	pop	ecx
	ret	0
__ehhandler$?RequestPathToItem@Raven_PathPlanner@@QAE_NI@Z:
	mov	edx, DWORD PTR [esp+8]
	lea	eax, DWORD PTR [edx+12]
	mov	ecx, DWORD PTR [edx-40]
	xor	ecx, eax
	call	@__security_check_cookie@4
	mov	eax, OFFSET __ehfuncinfo$?RequestPathToItem@Raven_PathPlanner@@QAE_NI@Z
	jmp	___CxxFrameHandler3
text$x	ENDS
?RequestPathToItem@Raven_PathPlanner@@QAE_NI@Z ENDP	; Raven_PathPlanner::RequestPathToItem
; Function compile flags: /Odtp /RTCsu
_TEXT	SEGMENT
_this$ = -4						; size = 4
___$ReturnUdt$ = 8					; size = 4
_idx$ = 12						; size = 4
?GetNodePosition@Raven_PathPlanner@@QBE?AUVector2D@@H@Z PROC ; Raven_PathPlanner::GetNodePosition
; _this$ = ecx

; 485  : {

	push	ebp
	mov	ebp, esp
	push	ecx
	mov	DWORD PTR [ebp-4], -858993460		; ccccccccH
	mov	DWORD PTR _this$[ebp], ecx

; 486  :   return m_NavGraph.GetNode(idx).Pos();

	mov	eax, DWORD PTR ___$ReturnUdt$[ebp]
	push	eax
	mov	ecx, DWORD PTR _idx$[ebp]
	push	ecx
	mov	edx, DWORD PTR _this$[ebp]
	mov	ecx, DWORD PTR [edx+8]
	call	?GetNode@?$SparseGraph@V?$NavGraphNode@PAV?$Trigger@VRaven_Bot@@@@@@VNavGraphEdge@@@@QBEABV?$NavGraphNode@PAV?$Trigger@VRaven_Bot@@@@@@H@Z ; SparseGraph<NavGraphNode<Trigger<Raven_Bot> *>,NavGraphEdge>::GetNode
	mov	ecx, eax
	call	?Pos@?$NavGraphNode@PAV?$Trigger@VRaven_Bot@@@@@@QBE?AUVector2D@@XZ ; NavGraphNode<Trigger<Raven_Bot> *>::Pos
	mov	eax, DWORD PTR ___$ReturnUdt$[ebp]

; 487  : }

	add	esp, 4
	cmp	ebp, esp
	call	__RTC_CheckEsp
	mov	esp, ebp
	pop	ebp
	ret	8
?GetNodePosition@Raven_PathPlanner@@QBE?AUVector2D@@H@Z ENDP ; Raven_PathPlanner::GetNodePosition
; Function compile flags: /Odtp /RTCsu
; File c:\users\alec\desktop\gameaisource\vs2010\common\triggers\triggersystem.h
_TEXT	ENDS
;	COMDAT ?GetTriggers@?$TriggerSystem@V?$Trigger@VRaven_Bot@@@@@@QBEABV?$list@PAV?$Trigger@VRaven_Bot@@@@V?$allocator@PAV?$Trigger@VRaven_Bot@@@@@std@@@std@@XZ
_TEXT	SEGMENT
_this$ = -4						; size = 4
?GetTriggers@?$TriggerSystem@V?$Trigger@VRaven_Bot@@@@@@QBEABV?$list@PAV?$Trigger@VRaven_Bot@@@@V?$allocator@PAV?$Trigger@VRaven_Bot@@@@@std@@@std@@XZ PROC ; TriggerSystem<Trigger<Raven_Bot> >::GetTriggers, COMDAT
; _this$ = ecx

; 126  :   const TriggerList& GetTriggers()const{return m_Triggers;}

	push	ebp
	mov	ebp, esp
	push	ecx
	mov	DWORD PTR [ebp-4], -858993460		; ccccccccH
	mov	DWORD PTR _this$[ebp], ecx
	mov	eax, DWORD PTR _this$[ebp]
	mov	esp, ebp
	pop	ebp
	ret	0
?GetTriggers@?$TriggerSystem@V?$Trigger@VRaven_Bot@@@@@@QBEABV?$list@PAV?$Trigger@VRaven_Bot@@@@V?$allocator@PAV?$Trigger@VRaven_Bot@@@@@std@@@std@@XZ ENDP ; TriggerSystem<Trigger<Raven_Bot> >::GetTriggers
_TEXT	ENDS
PUBLIC	??0?$_List_const_iterator@V?$_List_val@PAV?$Trigger@VRaven_Bot@@@@V?$allocator@PAV?$Trigger@VRaven_Bot@@@@@std@@@std@@@std@@QAE@PAU_Node@?$_List_nod@PAV?$Trigger@VRaven_Bot@@@@V?$allocator@PAV?$Trigger@VRaven_Bot@@@@@std@@@1@PBV?$_List_val@PAV?$Trigger@VRaven_Bot@@@@V?$allocator@PAV?$Trigger@VRaven_Bot@@@@@std@@@1@@Z ; std::_List_const_iterator<std::_List_val<Trigger<Raven_Bot> *,std::allocator<Trigger<Raven_Bot> *> > >::_List_const_iterator<std::_List_val<Trigger<Raven_Bot> *,std::allocator<Trigger<Raven_Bot> *> > >
PUBLIC	?_Nextnode@?$_List_val@PAV?$Trigger@VRaven_Bot@@@@V?$allocator@PAV?$Trigger@VRaven_Bot@@@@@std@@@std@@SAAAPAU_Node@?$_List_nod@PAV?$Trigger@VRaven_Bot@@@@V?$allocator@PAV?$Trigger@VRaven_Bot@@@@@std@@@2@PAU342@@Z ; std::_List_val<Trigger<Raven_Bot> *,std::allocator<Trigger<Raven_Bot> *> >::_Nextnode
; Function compile flags: /Odtp /RTCsu
; File c:\program files (x86)\microsoft visual studio 10.0\vc\include\list
;	COMDAT ?begin@?$list@PAV?$Trigger@VRaven_Bot@@@@V?$allocator@PAV?$Trigger@VRaven_Bot@@@@@std@@@std@@QBE?AV?$_List_const_iterator@V?$_List_val@PAV?$Trigger@VRaven_Bot@@@@V?$allocator@PAV?$Trigger@VRaven_Bot@@@@@std@@@std@@@2@XZ
_TEXT	SEGMENT
$T164645 = -8						; size = 4
_this$ = -4						; size = 4
___$ReturnUdt$ = 8					; size = 4
?begin@?$list@PAV?$Trigger@VRaven_Bot@@@@V?$allocator@PAV?$Trigger@VRaven_Bot@@@@@std@@@std@@QBE?AV?$_List_const_iterator@V?$_List_val@PAV?$Trigger@VRaven_Bot@@@@V?$allocator@PAV?$Trigger@VRaven_Bot@@@@@std@@@std@@@2@XZ PROC ; std::list<Trigger<Raven_Bot> *,std::allocator<Trigger<Raven_Bot> *> >::begin, COMDAT
; _this$ = ecx

; 786  : 		{	// return iterator for beginning of nonmutable sequence

	push	ebp
	mov	ebp, esp
	sub	esp, 8
	mov	DWORD PTR [ebp-8], -858993460		; ccccccccH
	mov	DWORD PTR [ebp-4], -858993460		; ccccccccH
	mov	DWORD PTR _this$[ebp], ecx
	mov	DWORD PTR $T164645[ebp], 0

; 787  : 		return (const_iterator(this->_Nextnode(this->_Myhead), this));

	mov	eax, DWORD PTR _this$[ebp]
	push	eax
	mov	ecx, DWORD PTR _this$[ebp]
	mov	edx, DWORD PTR [ecx+4]
	push	edx
	call	?_Nextnode@?$_List_val@PAV?$Trigger@VRaven_Bot@@@@V?$allocator@PAV?$Trigger@VRaven_Bot@@@@@std@@@std@@SAAAPAU_Node@?$_List_nod@PAV?$Trigger@VRaven_Bot@@@@V?$allocator@PAV?$Trigger@VRaven_Bot@@@@@std@@@2@PAU342@@Z ; std::_List_val<Trigger<Raven_Bot> *,std::allocator<Trigger<Raven_Bot> *> >::_Nextnode
	add	esp, 4
	mov	eax, DWORD PTR [eax]
	push	eax
	mov	ecx, DWORD PTR ___$ReturnUdt$[ebp]
	call	??0?$_List_const_iterator@V?$_List_val@PAV?$Trigger@VRaven_Bot@@@@V?$allocator@PAV?$Trigger@VRaven_Bot@@@@@std@@@std@@@std@@QAE@PAU_Node@?$_List_nod@PAV?$Trigger@VRaven_Bot@@@@V?$allocator@PAV?$Trigger@VRaven_Bot@@@@@std@@@1@PBV?$_List_val@PAV?$Trigger@VRaven_Bot@@@@V?$allocator@PAV?$Trigger@VRaven_Bot@@@@@std@@@1@@Z ; std::_List_const_iterator<std::_List_val<Trigger<Raven_Bot> *,std::allocator<Trigger<Raven_Bot> *> > >::_List_const_iterator<std::_List_val<Trigger<Raven_Bot> *,std::allocator<Trigger<Raven_Bot> *> > >
	mov	ecx, DWORD PTR $T164645[ebp]
	or	ecx, 1
	mov	DWORD PTR $T164645[ebp], ecx
	mov	eax, DWORD PTR ___$ReturnUdt$[ebp]

; 788  : 		}

	add	esp, 8
	cmp	ebp, esp
	call	__RTC_CheckEsp
	mov	esp, ebp
	pop	ebp
	ret	4
?begin@?$list@PAV?$Trigger@VRaven_Bot@@@@V?$allocator@PAV?$Trigger@VRaven_Bot@@@@@std@@@std@@QBE?AV?$_List_const_iterator@V?$_List_val@PAV?$Trigger@VRaven_Bot@@@@V?$allocator@PAV?$Trigger@VRaven_Bot@@@@@std@@@std@@@2@XZ ENDP ; std::list<Trigger<Raven_Bot> *,std::allocator<Trigger<Raven_Bot> *> >::begin
; Function compile flags: /Odtp /RTCsu
_TEXT	ENDS
;	COMDAT ?end@?$list@PAV?$Trigger@VRaven_Bot@@@@V?$allocator@PAV?$Trigger@VRaven_Bot@@@@@std@@@std@@QBE?AV?$_List_const_iterator@V?$_List_val@PAV?$Trigger@VRaven_Bot@@@@V?$allocator@PAV?$Trigger@VRaven_Bot@@@@@std@@@std@@@2@XZ
_TEXT	SEGMENT
$T164650 = -8						; size = 4
_this$ = -4						; size = 4
___$ReturnUdt$ = 8					; size = 4
?end@?$list@PAV?$Trigger@VRaven_Bot@@@@V?$allocator@PAV?$Trigger@VRaven_Bot@@@@@std@@@std@@QBE?AV?$_List_const_iterator@V?$_List_val@PAV?$Trigger@VRaven_Bot@@@@V?$allocator@PAV?$Trigger@VRaven_Bot@@@@@std@@@std@@@2@XZ PROC ; std::list<Trigger<Raven_Bot> *,std::allocator<Trigger<Raven_Bot> *> >::end, COMDAT
; _this$ = ecx

; 796  : 		{	// return iterator for end of nonmutable sequence

	push	ebp
	mov	ebp, esp
	sub	esp, 8
	mov	DWORD PTR [ebp-8], -858993460		; ccccccccH
	mov	DWORD PTR [ebp-4], -858993460		; ccccccccH
	mov	DWORD PTR _this$[ebp], ecx
	mov	DWORD PTR $T164650[ebp], 0

; 797  : 		return (const_iterator(this->_Myhead, this));

	mov	eax, DWORD PTR _this$[ebp]
	push	eax
	mov	ecx, DWORD PTR _this$[ebp]
	mov	edx, DWORD PTR [ecx+4]
	push	edx
	mov	ecx, DWORD PTR ___$ReturnUdt$[ebp]
	call	??0?$_List_const_iterator@V?$_List_val@PAV?$Trigger@VRaven_Bot@@@@V?$allocator@PAV?$Trigger@VRaven_Bot@@@@@std@@@std@@@std@@QAE@PAU_Node@?$_List_nod@PAV?$Trigger@VRaven_Bot@@@@V?$allocator@PAV?$Trigger@VRaven_Bot@@@@@std@@@1@PBV?$_List_val@PAV?$Trigger@VRaven_Bot@@@@V?$allocator@PAV?$Trigger@VRaven_Bot@@@@@std@@@1@@Z ; std::_List_const_iterator<std::_List_val<Trigger<Raven_Bot> *,std::allocator<Trigger<Raven_Bot> *> > >::_List_const_iterator<std::_List_val<Trigger<Raven_Bot> *,std::allocator<Trigger<Raven_Bot> *> > >
	mov	eax, DWORD PTR $T164650[ebp]
	or	eax, 1
	mov	DWORD PTR $T164650[ebp], eax
	mov	eax, DWORD PTR ___$ReturnUdt$[ebp]

; 798  : 		}

	add	esp, 8
	cmp	ebp, esp
	call	__RTC_CheckEsp
	mov	esp, ebp
	pop	ebp
	ret	4
?end@?$list@PAV?$Trigger@VRaven_Bot@@@@V?$allocator@PAV?$Trigger@VRaven_Bot@@@@@std@@@std@@QBE?AV?$_List_const_iterator@V?$_List_val@PAV?$Trigger@VRaven_Bot@@@@V?$allocator@PAV?$Trigger@VRaven_Bot@@@@@std@@@std@@@2@XZ ENDP ; std::list<Trigger<Raven_Bot> *,std::allocator<Trigger<Raven_Bot> *> >::end
; Function compile flags: /Odtp /RTCsu
; File c:\users\alec\desktop\gameaisource\vs2010\buckland_chapter7 to 10_raven\navigation\timeslicedgraphalgorithms.h
_TEXT	ENDS
;	COMDAT ?GetType@?$Graph_SearchTimeSliced@VNavGraphEdge@@@@QBE?AW4SearchType@1@XZ
_TEXT	SEGMENT
_this$ = -4						; size = 4
?GetType@?$Graph_SearchTimeSliced@VNavGraphEdge@@@@QBE?AW4SearchType@1@XZ PROC ; Graph_SearchTimeSliced<NavGraphEdge>::GetType, COMDAT
; _this$ = ecx

; 76   :   SearchType                            GetType()const{return m_SearchType;}

	push	ebp
	mov	ebp, esp
	push	ecx
	mov	DWORD PTR [ebp-4], -858993460		; ccccccccH
	mov	DWORD PTR _this$[ebp], ecx
	mov	eax, DWORD PTR _this$[ebp]
	mov	eax, DWORD PTR [eax+4]
	mov	esp, ebp
	pop	ebp
	ret	0
?GetType@?$Graph_SearchTimeSliced@VNavGraphEdge@@@@QBE?AW4SearchType@1@XZ ENDP ; Graph_SearchTimeSliced<NavGraphEdge>::GetType
; Function compile flags: /Odtp /RTCsu
; File c:\users\alec\desktop\gameaisource\vs2010\common\graph\graphnodetypes.h
_TEXT	ENDS
;	COMDAT ?Pos@?$NavGraphNode@PAV?$Trigger@VRaven_Bot@@@@@@QBE?AUVector2D@@XZ
_TEXT	SEGMENT
_this$ = -4						; size = 4
___$ReturnUdt$ = 8					; size = 4
?Pos@?$NavGraphNode@PAV?$Trigger@VRaven_Bot@@@@@@QBE?AUVector2D@@XZ PROC ; NavGraphNode<Trigger<Raven_Bot> *>::Pos, COMDAT
; _this$ = ecx

; 94   :   Vector2D   Pos()const{return m_vPosition;}

	push	ebp
	mov	ebp, esp
	push	ecx
	mov	DWORD PTR [ebp-4], -858993460		; ccccccccH
	mov	DWORD PTR _this$[ebp], ecx
	mov	eax, DWORD PTR _this$[ebp]
	add	eax, 8
	mov	ecx, DWORD PTR ___$ReturnUdt$[ebp]
	mov	edx, DWORD PTR [eax]
	mov	DWORD PTR [ecx], edx
	mov	edx, DWORD PTR [eax+4]
	mov	DWORD PTR [ecx+4], edx
	mov	edx, DWORD PTR [eax+8]
	mov	DWORD PTR [ecx+8], edx
	mov	eax, DWORD PTR [eax+12]
	mov	DWORD PTR [ecx+12], eax
	mov	eax, DWORD PTR ___$ReturnUdt$[ebp]
	mov	esp, ebp
	pop	ebp
	ret	4
?Pos@?$NavGraphNode@PAV?$Trigger@VRaven_Bot@@@@@@QBE?AUVector2D@@XZ ENDP ; NavGraphNode<Trigger<Raven_Bot> *>::Pos
; Function compile flags: /Odtp /RTCsu
_TEXT	ENDS
;	COMDAT ?ExtraInfo@?$NavGraphNode@PAV?$Trigger@VRaven_Bot@@@@@@QBEPAV?$Trigger@VRaven_Bot@@@@XZ
_TEXT	SEGMENT
_this$ = -4						; size = 4
?ExtraInfo@?$NavGraphNode@PAV?$Trigger@VRaven_Bot@@@@@@QBEPAV?$Trigger@VRaven_Bot@@@@XZ PROC ; NavGraphNode<Trigger<Raven_Bot> *>::ExtraInfo, COMDAT
; _this$ = ecx

; 97   :   extra_info ExtraInfo()const{return m_ExtraInfo;}

	push	ebp
	mov	ebp, esp
	push	ecx
	mov	DWORD PTR [ebp-4], -858993460		; ccccccccH
	mov	DWORD PTR _this$[ebp], ecx
	mov	eax, DWORD PTR _this$[ebp]
	mov	eax, DWORD PTR [eax+24]
	mov	esp, ebp
	pop	ebp
	ret	0
?ExtraInfo@?$NavGraphNode@PAV?$Trigger@VRaven_Bot@@@@@@QBEPAV?$Trigger@VRaven_Bot@@@@XZ ENDP ; NavGraphNode<Trigger<Raven_Bot> *>::ExtraInfo
_TEXT	ENDS
PUBLIC	??0?$_List_unchecked_const_iterator@V?$_List_val@PAV?$Trigger@VRaven_Bot@@@@V?$allocator@PAV?$Trigger@VRaven_Bot@@@@@std@@@std@@U_Iterator_base12@2@@std@@QAE@XZ ; std::_List_unchecked_const_iterator<std::_List_val<Trigger<Raven_Bot> *,std::allocator<Trigger<Raven_Bot> *> >,std::_Iterator_base12>::_List_unchecked_const_iterator<std::_List_val<Trigger<Raven_Bot> *,std::allocator<Trigger<Raven_Bot> *> >,std::_Iterator_base12>
; Function compile flags: /Odtp /RTCsu
; File c:\program files (x86)\microsoft visual studio 10.0\vc\include\list
;	COMDAT ??0?$_List_const_iterator@V?$_List_val@PAV?$Trigger@VRaven_Bot@@@@V?$allocator@PAV?$Trigger@VRaven_Bot@@@@@std@@@std@@@std@@QAE@XZ
_TEXT	SEGMENT
_this$ = -4						; size = 4
??0?$_List_const_iterator@V?$_List_val@PAV?$Trigger@VRaven_Bot@@@@V?$allocator@PAV?$Trigger@VRaven_Bot@@@@@std@@@std@@@std@@QAE@XZ PROC ; std::_List_const_iterator<std::_List_val<Trigger<Raven_Bot> *,std::allocator<Trigger<Raven_Bot> *> > >::_List_const_iterator<std::_List_val<Trigger<Raven_Bot> *,std::allocator<Trigger<Raven_Bot> *> > >, COMDAT
; _this$ = ecx

; 179  : 		{	// construct with null node pointer

	push	ebp
	mov	ebp, esp
	push	ecx
	mov	DWORD PTR [ebp-4], -858993460		; ccccccccH
	mov	DWORD PTR _this$[ebp], ecx
	mov	ecx, DWORD PTR _this$[ebp]
	call	??0?$_List_unchecked_const_iterator@V?$_List_val@PAV?$Trigger@VRaven_Bot@@@@V?$allocator@PAV?$Trigger@VRaven_Bot@@@@@std@@@std@@U_Iterator_base12@2@@std@@QAE@XZ ; std::_List_unchecked_const_iterator<std::_List_val<Trigger<Raven_Bot> *,std::allocator<Trigger<Raven_Bot> *> >,std::_Iterator_base12>::_List_unchecked_const_iterator<std::_List_val<Trigger<Raven_Bot> *,std::allocator<Trigger<Raven_Bot> *> >,std::_Iterator_base12>

; 180  : 		}

	mov	eax, DWORD PTR _this$[ebp]
	add	esp, 4
	cmp	ebp, esp
	call	__RTC_CheckEsp
	mov	esp, ebp
	pop	ebp
	ret	0
??0?$_List_const_iterator@V?$_List_val@PAV?$Trigger@VRaven_Bot@@@@V?$allocator@PAV?$Trigger@VRaven_Bot@@@@@std@@@std@@@std@@QAE@XZ ENDP ; std::_List_const_iterator<std::_List_val<Trigger<Raven_Bot> *,std::allocator<Trigger<Raven_Bot> *> > >::_List_const_iterator<std::_List_val<Trigger<Raven_Bot> *,std::allocator<Trigger<Raven_Bot> *> > >
_TEXT	ENDS
PUBLIC	?_Myval@?$_List_val@PAV?$Trigger@VRaven_Bot@@@@V?$allocator@PAV?$Trigger@VRaven_Bot@@@@@std@@@std@@SAAAPAV?$Trigger@VRaven_Bot@@@@PAU_Node@?$_List_nod@PAV?$Trigger@VRaven_Bot@@@@V?$allocator@PAV?$Trigger@VRaven_Bot@@@@@std@@@2@@Z ; std::_List_val<Trigger<Raven_Bot> *,std::allocator<Trigger<Raven_Bot> *> >::_Myval
PUBLIC	??_C@_1BO@MEPPHOO@?$AA?$CC?$AAo?$AAu?$AAt?$AA?5?$AAo?$AAf?$AA?5?$AAr?$AAa?$AAn?$AAg?$AAe?$AA?$CC?$AA?$AA@ ; `string'
PUBLIC	??_C@_1BCO@HBHEJGMP@?$AAs?$AAt?$AAd?$AA?3?$AA?3?$AA_?$AAL?$AAi?$AAs?$AAt?$AA_?$AAc?$AAo?$AAn?$AAs?$AAt?$AA_?$AAi?$AAt?$AAe?$AAr?$AAa?$AAt?$AAo?$AAr?$AA?$DM?$AAc?$AAl?$AAa?$AAs?$AAs?$AA?5@ ; `string'
PUBLIC	??_C@_1FG@IBPIFFN@?$AA?$CC?$AAS?$AAt?$AAa?$AAn?$AAd?$AAa?$AAr?$AAd?$AA?5?$AAC?$AA?$CL?$AA?$CL?$AA?5?$AAL?$AAi?$AAb?$AAr?$AAa?$AAr?$AAi?$AAe?$AAs?$AA?5?$AAO?$AAu?$AAt?$AA?5?$AAo?$AAf?$AA?5?$AAR@ ; `string'
PUBLIC	??_C@_0CE@OFMIGAMM@Standard?5C?$CL?$CL?5Libraries?5Out?5of?5Ra@ ; `string'
PUBLIC	??_C@_1EC@HILJLMMC@?$AAl?$AAi?$AAs?$AAt?$AA?5?$AAi?$AAt?$AAe?$AAr?$AAa?$AAt?$AAo?$AAr?$AA?5?$AAn?$AAo?$AAt?$AA?5?$AAd?$AAe?$AAr?$AAe?$AAf?$AAe?$AAr?$AAe?$AAn?$AAc?$AAa?$AAb?$AAl?$AAe@ ; `string'
PUBLIC	??_C@_1II@CHCJCGAK@?$AAC?$AA?3?$AA?2?$AAP?$AAr?$AAo?$AAg?$AAr?$AAa?$AAm?$AA?5?$AAF?$AAi?$AAl?$AAe?$AAs?$AA?5?$AA?$CI?$AAx?$AA8?$AA6?$AA?$CJ?$AA?2?$AAM?$AAi?$AAc?$AAr?$AAo?$AAs?$AAo?$AAf?$AAt@ ; `string'
PUBLIC	?_Getcont@_Iterator_base12@std@@QBEPBU_Container_base12@2@XZ ; std::_Iterator_base12::_Getcont
EXTRN	__invalid_parameter:PROC
EXTRN	__CrtDbgReportW:PROC
;	COMDAT ??_C@_1BO@MEPPHOO@?$AA?$CC?$AAo?$AAu?$AAt?$AA?5?$AAo?$AAf?$AA?5?$AAr?$AAa?$AAn?$AAg?$AAe?$AA?$CC?$AA?$AA@
CONST	SEGMENT
??_C@_1BO@MEPPHOO@?$AA?$CC?$AAo?$AAu?$AAt?$AA?5?$AAo?$AAf?$AA?5?$AAr?$AAa?$AAn?$AAg?$AAe?$AA?$CC?$AA?$AA@ DB '"'
	DB	00H, 'o', 00H, 'u', 00H, 't', 00H, ' ', 00H, 'o', 00H, 'f', 00H
	DB	' ', 00H, 'r', 00H, 'a', 00H, 'n', 00H, 'g', 00H, 'e', 00H, '"'
	DB	00H, 00H, 00H				; `string'
CONST	ENDS
;	COMDAT ??_C@_1BCO@HBHEJGMP@?$AAs?$AAt?$AAd?$AA?3?$AA?3?$AA_?$AAL?$AAi?$AAs?$AAt?$AA_?$AAc?$AAo?$AAn?$AAs?$AAt?$AA_?$AAi?$AAt?$AAe?$AAr?$AAa?$AAt?$AAo?$AAr?$AA?$DM?$AAc?$AAl?$AAa?$AAs?$AAs?$AA?5@
CONST	SEGMENT
??_C@_1BCO@HBHEJGMP@?$AAs?$AAt?$AAd?$AA?3?$AA?3?$AA_?$AAL?$AAi?$AAs?$AAt?$AA_?$AAc?$AAo?$AAn?$AAs?$AAt?$AA_?$AAi?$AAt?$AAe?$AAr?$AAa?$AAt?$AAo?$AAr?$AA?$DM?$AAc?$AAl?$AAa?$AAs?$AAs?$AA?5@ DB 's'
	DB	00H, 't', 00H, 'd', 00H, ':', 00H, ':', 00H, '_', 00H, 'L', 00H
	DB	'i', 00H, 's', 00H, 't', 00H, '_', 00H, 'c', 00H, 'o', 00H, 'n'
	DB	00H, 's', 00H, 't', 00H, '_', 00H, 'i', 00H, 't', 00H, 'e', 00H
	DB	'r', 00H, 'a', 00H, 't', 00H, 'o', 00H, 'r', 00H, '<', 00H, 'c'
	DB	00H, 'l', 00H, 'a', 00H, 's', 00H, 's', 00H, ' ', 00H, 's', 00H
	DB	't', 00H, 'd', 00H, ':', 00H, ':', 00H, '_', 00H, 'L', 00H, 'i'
	DB	00H, 's', 00H, 't', 00H, '_', 00H, 'v', 00H, 'a', 00H, 'l', 00H
	DB	'<', 00H, 'c', 00H, 'l', 00H, 'a', 00H, 's', 00H, 's', 00H, ' '
	DB	00H, 'T', 00H, 'r', 00H, 'i', 00H, 'g', 00H, 'g', 00H, 'e', 00H
	DB	'r', 00H, '<', 00H, 'c', 00H, 'l', 00H, 'a', 00H, 's', 00H, 's'
	DB	00H, ' ', 00H, 'R', 00H, 'a', 00H, 'v', 00H, 'e', 00H, 'n', 00H
	DB	'_', 00H, 'B', 00H, 'o', 00H, 't', 00H, '>', 00H, ' ', 00H, '*'
	DB	00H, ',', 00H, 'c', 00H, 'l', 00H, 'a', 00H, 's', 00H, 's', 00H
	DB	' ', 00H, 's', 00H, 't', 00H, 'd', 00H, ':', 00H, ':', 00H, 'a'
	DB	00H, 'l', 00H, 'l', 00H, 'o', 00H, 'c', 00H, 'a', 00H, 't', 00H
	DB	'o', 00H, 'r', 00H, '<', 00H, 'c', 00H, 'l', 00H, 'a', 00H, 's'
	DB	00H, 's', 00H, ' ', 00H, 'T', 00H, 'r', 00H, 'i', 00H, 'g', 00H
	DB	'g', 00H, 'e', 00H, 'r', 00H, '<', 00H, 'c', 00H, 'l', 00H, 'a'
	DB	00H, 's', 00H, 's', 00H, ' ', 00H, 'R', 00H, 'a', 00H, 'v', 00H
	DB	'e', 00H, 'n', 00H, '_', 00H, 'B', 00H, 'o', 00H, 't', 00H, '>'
	DB	00H, ' ', 00H, '*', 00H, '>', 00H, ' ', 00H, '>', 00H, ' ', 00H
	DB	'>', 00H, ':', 00H, ':', 00H, 'o', 00H, 'p', 00H, 'e', 00H, 'r'
	DB	00H, 'a', 00H, 't', 00H, 'o', 00H, 'r', 00H, ' ', 00H, '*', 00H
	DB	00H, 00H					; `string'
CONST	ENDS
;	COMDAT ??_C@_1FG@IBPIFFN@?$AA?$CC?$AAS?$AAt?$AAa?$AAn?$AAd?$AAa?$AAr?$AAd?$AA?5?$AAC?$AA?$CL?$AA?$CL?$AA?5?$AAL?$AAi?$AAb?$AAr?$AAa?$AAr?$AAi?$AAe?$AAs?$AA?5?$AAO?$AAu?$AAt?$AA?5?$AAo?$AAf?$AA?5?$AAR@
CONST	SEGMENT
??_C@_1FG@IBPIFFN@?$AA?$CC?$AAS?$AAt?$AAa?$AAn?$AAd?$AAa?$AAr?$AAd?$AA?5?$AAC?$AA?$CL?$AA?$CL?$AA?5?$AAL?$AAi?$AAb?$AAr?$AAa?$AAr?$AAi?$AAe?$AAs?$AA?5?$AAO?$AAu?$AAt?$AA?5?$AAo?$AAf?$AA?5?$AAR@ DB '"'
	DB	00H, 'S', 00H, 't', 00H, 'a', 00H, 'n', 00H, 'd', 00H, 'a', 00H
	DB	'r', 00H, 'd', 00H, ' ', 00H, 'C', 00H, '+', 00H, '+', 00H, ' '
	DB	00H, 'L', 00H, 'i', 00H, 'b', 00H, 'r', 00H, 'a', 00H, 'r', 00H
	DB	'i', 00H, 'e', 00H, 's', 00H, ' ', 00H, 'O', 00H, 'u', 00H, 't'
	DB	00H, ' ', 00H, 'o', 00H, 'f', 00H, ' ', 00H, 'R', 00H, 'a', 00H
	DB	'n', 00H, 'g', 00H, 'e', 00H, '"', 00H, ' ', 00H, '&', 00H, '&'
	DB	00H, ' ', 00H, '0', 00H, 00H, 00H		; `string'
CONST	ENDS
;	COMDAT ??_C@_0CE@OFMIGAMM@Standard?5C?$CL?$CL?5Libraries?5Out?5of?5Ra@
CONST	SEGMENT
??_C@_0CE@OFMIGAMM@Standard?5C?$CL?$CL?5Libraries?5Out?5of?5Ra@ DB 'Stand'
	DB	'ard C++ Libraries Out of Range', 00H	; `string'
CONST	ENDS
;	COMDAT ??_C@_1EC@HILJLMMC@?$AAl?$AAi?$AAs?$AAt?$AA?5?$AAi?$AAt?$AAe?$AAr?$AAa?$AAt?$AAo?$AAr?$AA?5?$AAn?$AAo?$AAt?$AA?5?$AAd?$AAe?$AAr?$AAe?$AAf?$AAe?$AAr?$AAe?$AAn?$AAc?$AAa?$AAb?$AAl?$AAe@
CONST	SEGMENT
??_C@_1EC@HILJLMMC@?$AAl?$AAi?$AAs?$AAt?$AA?5?$AAi?$AAt?$AAe?$AAr?$AAa?$AAt?$AAo?$AAr?$AA?5?$AAn?$AAo?$AAt?$AA?5?$AAd?$AAe?$AAr?$AAe?$AAf?$AAe?$AAr?$AAe?$AAn?$AAc?$AAa?$AAb?$AAl?$AAe@ DB 'l'
	DB	00H, 'i', 00H, 's', 00H, 't', 00H, ' ', 00H, 'i', 00H, 't', 00H
	DB	'e', 00H, 'r', 00H, 'a', 00H, 't', 00H, 'o', 00H, 'r', 00H, ' '
	DB	00H, 'n', 00H, 'o', 00H, 't', 00H, ' ', 00H, 'd', 00H, 'e', 00H
	DB	'r', 00H, 'e', 00H, 'f', 00H, 'e', 00H, 'r', 00H, 'e', 00H, 'n'
	DB	00H, 'c', 00H, 'a', 00H, 'b', 00H, 'l', 00H, 'e', 00H, 00H, 00H ; `string'
CONST	ENDS
;	COMDAT ??_C@_1II@CHCJCGAK@?$AAC?$AA?3?$AA?2?$AAP?$AAr?$AAo?$AAg?$AAr?$AAa?$AAm?$AA?5?$AAF?$AAi?$AAl?$AAe?$AAs?$AA?5?$AA?$CI?$AAx?$AA8?$AA6?$AA?$CJ?$AA?2?$AAM?$AAi?$AAc?$AAr?$AAo?$AAs?$AAo?$AAf?$AAt@
CONST	SEGMENT
??_C@_1II@CHCJCGAK@?$AAC?$AA?3?$AA?2?$AAP?$AAr?$AAo?$AAg?$AAr?$AAa?$AAm?$AA?5?$AAF?$AAi?$AAl?$AAe?$AAs?$AA?5?$AA?$CI?$AAx?$AA8?$AA6?$AA?$CJ?$AA?2?$AAM?$AAi?$AAc?$AAr?$AAo?$AAs?$AAo?$AAf?$AAt@ DB 'C'
	DB	00H, ':', 00H, '\', 00H, 'P', 00H, 'r', 00H, 'o', 00H, 'g', 00H
	DB	'r', 00H, 'a', 00H, 'm', 00H, ' ', 00H, 'F', 00H, 'i', 00H, 'l'
	DB	00H, 'e', 00H, 's', 00H, ' ', 00H, '(', 00H, 'x', 00H, '8', 00H
	DB	'6', 00H, ')', 00H, '\', 00H, 'M', 00H, 'i', 00H, 'c', 00H, 'r'
	DB	00H, 'o', 00H, 's', 00H, 'o', 00H, 'f', 00H, 't', 00H, ' ', 00H
	DB	'V', 00H, 'i', 00H, 's', 00H, 'u', 00H, 'a', 00H, 'l', 00H, ' '
	DB	00H, 'S', 00H, 't', 00H, 'u', 00H, 'd', 00H, 'i', 00H, 'o', 00H
	DB	' ', 00H, '1', 00H, '0', 00H, '.', 00H, '0', 00H, '\', 00H, 'V'
	DB	00H, 'C', 00H, '\', 00H, 'i', 00H, 'n', 00H, 'c', 00H, 'l', 00H
	DB	'u', 00H, 'd', 00H, 'e', 00H, '\', 00H, 'l', 00H, 'i', 00H, 's'
	DB	00H, 't', 00H, 00H, 00H			; `string'
; Function compile flags: /Odtp /RTCsu
CONST	ENDS
;	COMDAT ??D?$_List_const_iterator@V?$_List_val@PAV?$Trigger@VRaven_Bot@@@@V?$allocator@PAV?$Trigger@VRaven_Bot@@@@@std@@@std@@@std@@QBEABQAV?$Trigger@VRaven_Bot@@@@XZ
_TEXT	SEGMENT
_this$ = -4						; size = 4
??D?$_List_const_iterator@V?$_List_val@PAV?$Trigger@VRaven_Bot@@@@V?$allocator@PAV?$Trigger@VRaven_Bot@@@@@std@@@std@@@std@@QBEABQAV?$Trigger@VRaven_Bot@@@@XZ PROC ; std::_List_const_iterator<std::_List_val<Trigger<Raven_Bot> *,std::allocator<Trigger<Raven_Bot> *> > >::operator*, COMDAT
; _this$ = ecx

; 201  : 		{	// return designated value

	push	ebp
	mov	ebp, esp
	push	ecx
	mov	DWORD PTR [ebp-4], -858993460		; ccccccccH
	mov	DWORD PTR _this$[ebp], ecx

; 202  :  #if _ITERATOR_DEBUG_LEVEL == 2
; 203  : 		if (this->_Getcont() == 0
; 204  : 			|| this->_Ptr == 0
; 205  : 			|| this->_Ptr == ((_Mylist *)this->_Getcont())->_Myhead)

	mov	ecx, DWORD PTR _this$[ebp]
	call	?_Getcont@_Iterator_base12@std@@QBEPBU_Container_base12@2@XZ ; std::_Iterator_base12::_Getcont
	test	eax, eax
	je	SHORT $LN1@operator@2
	mov	eax, DWORD PTR _this$[ebp]
	cmp	DWORD PTR [eax+8], 0
	je	SHORT $LN1@operator@2
	mov	ecx, DWORD PTR _this$[ebp]
	call	?_Getcont@_Iterator_base12@std@@QBEPBU_Container_base12@2@XZ ; std::_Iterator_base12::_Getcont
	mov	ecx, DWORD PTR _this$[ebp]
	mov	edx, DWORD PTR [ecx+8]
	cmp	edx, DWORD PTR [eax+4]
	jne	SHORT $LN2@operator@2
$LN1@operator@2:

; 206  : 			{	// report error
; 207  : 			_DEBUG_ERROR("list iterator not dereferencable");

	push	207					; 000000cfH
	push	OFFSET ??_C@_1II@CHCJCGAK@?$AAC?$AA?3?$AA?2?$AAP?$AAr?$AAo?$AAg?$AAr?$AAa?$AAm?$AA?5?$AAF?$AAi?$AAl?$AAe?$AAs?$AA?5?$AA?$CI?$AAx?$AA8?$AA6?$AA?$CJ?$AA?2?$AAM?$AAi?$AAc?$AAr?$AAo?$AAs?$AAo?$AAf?$AAt@
	push	OFFSET ??_C@_1EC@HILJLMMC@?$AAl?$AAi?$AAs?$AAt?$AA?5?$AAi?$AAt?$AAe?$AAr?$AAa?$AAt?$AAo?$AAr?$AA?5?$AAn?$AAo?$AAt?$AA?5?$AAd?$AAe?$AAr?$AAe?$AAf?$AAe?$AAr?$AAe?$AAn?$AAc?$AAa?$AAb?$AAl?$AAe@
	call	?_Debug_message@std@@YAXPB_W0I@Z	; std::_Debug_message
	add	esp, 12					; 0000000cH

; 208  : 			_SCL_SECURE_OUT_OF_RANGE;

	mov	eax, OFFSET ??_C@_0CE@OFMIGAMM@Standard?5C?$CL?$CL?5Libraries?5Out?5of?5Ra@
	test	eax, eax
	je	SHORT $LN5@operator@2
	xor	ecx, ecx
	jne	SHORT $LN6@operator@2
$LN5@operator@2:
	push	OFFSET ??_C@_1FG@IBPIFFN@?$AA?$CC?$AAS?$AAt?$AAa?$AAn?$AAd?$AAa?$AAr?$AAd?$AA?5?$AAC?$AA?$CL?$AA?$CL?$AA?5?$AAL?$AAi?$AAb?$AAr?$AAa?$AAr?$AAi?$AAe?$AAs?$AA?5?$AAO?$AAu?$AAt?$AA?5?$AAo?$AAf?$AA?5?$AAR@
	push	0
	push	208					; 000000d0H
	push	OFFSET ??_C@_1II@CHCJCGAK@?$AAC?$AA?3?$AA?2?$AAP?$AAr?$AAo?$AAg?$AAr?$AAa?$AAm?$AA?5?$AAF?$AAi?$AAl?$AAe?$AAs?$AA?5?$AA?$CI?$AAx?$AA8?$AA6?$AA?$CJ?$AA?2?$AAM?$AAi?$AAc?$AAr?$AAo?$AAs?$AAo?$AAf?$AAt@
	push	2
	call	__CrtDbgReportW
	add	esp, 20					; 00000014H
	cmp	eax, 1
	jne	SHORT $LN6@operator@2
	int	3
$LN6@operator@2:
	push	0
	push	208					; 000000d0H
	push	OFFSET ??_C@_1II@CHCJCGAK@?$AAC?$AA?3?$AA?2?$AAP?$AAr?$AAo?$AAg?$AAr?$AAa?$AAm?$AA?5?$AAF?$AAi?$AAl?$AAe?$AAs?$AA?5?$AA?$CI?$AAx?$AA8?$AA6?$AA?$CJ?$AA?2?$AAM?$AAi?$AAc?$AAr?$AAo?$AAs?$AAo?$AAf?$AAt@
	push	OFFSET ??_C@_1BCO@HBHEJGMP@?$AAs?$AAt?$AAd?$AA?3?$AA?3?$AA_?$AAL?$AAi?$AAs?$AAt?$AA_?$AAc?$AAo?$AAn?$AAs?$AAt?$AA_?$AAi?$AAt?$AAe?$AAr?$AAa?$AAt?$AAo?$AAr?$AA?$DM?$AAc?$AAl?$AAa?$AAs?$AAs?$AA?5@
	push	OFFSET ??_C@_1BO@MEPPHOO@?$AA?$CC?$AAo?$AAu?$AAt?$AA?5?$AAo?$AAf?$AA?5?$AAr?$AAa?$AAn?$AAg?$AAe?$AA?$CC?$AA?$AA@
	call	__invalid_parameter
	add	esp, 20					; 00000014H
$LN2@operator@2:

; 209  : 			}
; 210  : 
; 211  :  #elif _ITERATOR_DEBUG_LEVEL == 1
; 212  : 		_SCL_SECURE_VALIDATE(this->_Getcont() != 0 && this->_Ptr != 0);
; 213  : 		_SCL_SECURE_VALIDATE_RANGE(this->_Ptr !=
; 214  : 			((_Mylist *)this->_Getcont())->_Myhead);
; 215  :  #endif /* _ITERATOR_DEBUG_LEVEL */
; 216  : 
; 217  : 		return (_Mylist::_Myval(this->_Ptr));

	mov	eax, DWORD PTR _this$[ebp]
	mov	ecx, DWORD PTR [eax+8]
	push	ecx
	call	?_Myval@?$_List_val@PAV?$Trigger@VRaven_Bot@@@@V?$allocator@PAV?$Trigger@VRaven_Bot@@@@@std@@@std@@SAAAPAV?$Trigger@VRaven_Bot@@@@PAU_Node@?$_List_nod@PAV?$Trigger@VRaven_Bot@@@@V?$allocator@PAV?$Trigger@VRaven_Bot@@@@@std@@@2@@Z ; std::_List_val<Trigger<Raven_Bot> *,std::allocator<Trigger<Raven_Bot> *> >::_Myval
	add	esp, 4

; 218  : 		}

	add	esp, 4
	cmp	ebp, esp
	call	__RTC_CheckEsp
	mov	esp, ebp
	pop	ebp
	ret	0
??D?$_List_const_iterator@V?$_List_val@PAV?$Trigger@VRaven_Bot@@@@V?$allocator@PAV?$Trigger@VRaven_Bot@@@@@std@@@std@@@std@@QBEABQAV?$Trigger@VRaven_Bot@@@@XZ ENDP ; std::_List_const_iterator<std::_List_val<Trigger<Raven_Bot> *,std::allocator<Trigger<Raven_Bot> *> > >::operator*
; Function compile flags: /Odtp /RTCsu
; File c:\program files (x86)\microsoft visual studio 10.0\vc\include\xutility
_TEXT	ENDS
;	COMDAT ?_Getcont@_Iterator_base12@std@@QBEPBU_Container_base12@2@XZ
_TEXT	SEGMENT
tv66 = -8						; size = 4
_this$ = -4						; size = 4
?_Getcont@_Iterator_base12@std@@QBEPBU_Container_base12@2@XZ PROC ; std::_Iterator_base12::_Getcont, COMDAT
; _this$ = ecx

; 162  : 		{	// get owning container

	push	ebp
	mov	ebp, esp
	sub	esp, 8
	mov	DWORD PTR [ebp-8], -858993460		; ccccccccH
	mov	DWORD PTR [ebp-4], -858993460		; ccccccccH
	mov	DWORD PTR _this$[ebp], ecx

; 163  : 		return (_Myproxy == 0 ? 0 : _Myproxy->_Mycont);

	mov	eax, DWORD PTR _this$[ebp]
	cmp	DWORD PTR [eax], 0
	jne	SHORT $LN3@Getcont
	mov	DWORD PTR tv66[ebp], 0
	jmp	SHORT $LN4@Getcont
$LN3@Getcont:
	mov	ecx, DWORD PTR _this$[ebp]
	mov	edx, DWORD PTR [ecx]
	mov	eax, DWORD PTR [edx]
	mov	DWORD PTR tv66[ebp], eax
$LN4@Getcont:
	mov	eax, DWORD PTR tv66[ebp]

; 164  : 		}

	mov	esp, ebp
	pop	ebp
	ret	0
?_Getcont@_Iterator_base12@std@@QBEPBU_Container_base12@2@XZ ENDP ; std::_Iterator_base12::_Getcont
_TEXT	ENDS
PUBLIC	??_C@_1BDA@OJGBHHBO@?$AAs?$AAt?$AAd?$AA?3?$AA?3?$AA_?$AAL?$AAi?$AAs?$AAt?$AA_?$AAc?$AAo?$AAn?$AAs?$AAt?$AA_?$AAi?$AAt?$AAe?$AAr?$AAa?$AAt?$AAo?$AAr?$AA?$DM?$AAc?$AAl?$AAa?$AAs?$AAs?$AA?5@ ; `string'
PUBLIC	??_C@_1EA@DOGAGKDH@?$AAl?$AAi?$AAs?$AAt?$AA?5?$AAi?$AAt?$AAe?$AAr?$AAa?$AAt?$AAo?$AAr?$AA?5?$AAn?$AAo?$AAt?$AA?5?$AAi?$AAn?$AAc?$AAr?$AAe?$AAm?$AAe?$AAn?$AAt?$AAa?$AAb?$AAl?$AAe?$AA?$AA@ ; `string'
;	COMDAT ??_C@_1BDA@OJGBHHBO@?$AAs?$AAt?$AAd?$AA?3?$AA?3?$AA_?$AAL?$AAi?$AAs?$AAt?$AA_?$AAc?$AAo?$AAn?$AAs?$AAt?$AA_?$AAi?$AAt?$AAe?$AAr?$AAa?$AAt?$AAo?$AAr?$AA?$DM?$AAc?$AAl?$AAa?$AAs?$AAs?$AA?5@
; File c:\program files (x86)\microsoft visual studio 10.0\vc\include\list
CONST	SEGMENT
??_C@_1BDA@OJGBHHBO@?$AAs?$AAt?$AAd?$AA?3?$AA?3?$AA_?$AAL?$AAi?$AAs?$AAt?$AA_?$AAc?$AAo?$AAn?$AAs?$AAt?$AA_?$AAi?$AAt?$AAe?$AAr?$AAa?$AAt?$AAo?$AAr?$AA?$DM?$AAc?$AAl?$AAa?$AAs?$AAs?$AA?5@ DB 's'
	DB	00H, 't', 00H, 'd', 00H, ':', 00H, ':', 00H, '_', 00H, 'L', 00H
	DB	'i', 00H, 's', 00H, 't', 00H, '_', 00H, 'c', 00H, 'o', 00H, 'n'
	DB	00H, 's', 00H, 't', 00H, '_', 00H, 'i', 00H, 't', 00H, 'e', 00H
	DB	'r', 00H, 'a', 00H, 't', 00H, 'o', 00H, 'r', 00H, '<', 00H, 'c'
	DB	00H, 'l', 00H, 'a', 00H, 's', 00H, 's', 00H, ' ', 00H, 's', 00H
	DB	't', 00H, 'd', 00H, ':', 00H, ':', 00H, '_', 00H, 'L', 00H, 'i'
	DB	00H, 's', 00H, 't', 00H, '_', 00H, 'v', 00H, 'a', 00H, 'l', 00H
	DB	'<', 00H, 'c', 00H, 'l', 00H, 'a', 00H, 's', 00H, 's', 00H, ' '
	DB	00H, 'T', 00H, 'r', 00H, 'i', 00H, 'g', 00H, 'g', 00H, 'e', 00H
	DB	'r', 00H, '<', 00H, 'c', 00H, 'l', 00H, 'a', 00H, 's', 00H, 's'
	DB	00H, ' ', 00H, 'R', 00H, 'a', 00H, 'v', 00H, 'e', 00H, 'n', 00H
	DB	'_', 00H, 'B', 00H, 'o', 00H, 't', 00H, '>', 00H, ' ', 00H, '*'
	DB	00H, ',', 00H, 'c', 00H, 'l', 00H, 'a', 00H, 's', 00H, 's', 00H
	DB	' ', 00H, 's', 00H, 't', 00H, 'd', 00H, ':', 00H, ':', 00H, 'a'
	DB	00H, 'l', 00H, 'l', 00H, 'o', 00H, 'c', 00H, 'a', 00H, 't', 00H
	DB	'o', 00H, 'r', 00H, '<', 00H, 'c', 00H, 'l', 00H, 'a', 00H, 's'
	DB	00H, 's', 00H, ' ', 00H, 'T', 00H, 'r', 00H, 'i', 00H, 'g', 00H
	DB	'g', 00H, 'e', 00H, 'r', 00H, '<', 00H, 'c', 00H, 'l', 00H, 'a'
	DB	00H, 's', 00H, 's', 00H, ' ', 00H, 'R', 00H, 'a', 00H, 'v', 00H
	DB	'e', 00H, 'n', 00H, '_', 00H, 'B', 00H, 'o', 00H, 't', 00H, '>'
	DB	00H, ' ', 00H, '*', 00H, '>', 00H, ' ', 00H, '>', 00H, ' ', 00H
	DB	'>', 00H, ':', 00H, ':', 00H, 'o', 00H, 'p', 00H, 'e', 00H, 'r'
	DB	00H, 'a', 00H, 't', 00H, 'o', 00H, 'r', 00H, ' ', 00H, '+', 00H
	DB	'+', 00H, 00H, 00H				; `string'
CONST	ENDS
;	COMDAT ??_C@_1EA@DOGAGKDH@?$AAl?$AAi?$AAs?$AAt?$AA?5?$AAi?$AAt?$AAe?$AAr?$AAa?$AAt?$AAo?$AAr?$AA?5?$AAn?$AAo?$AAt?$AA?5?$AAi?$AAn?$AAc?$AAr?$AAe?$AAm?$AAe?$AAn?$AAt?$AAa?$AAb?$AAl?$AAe?$AA?$AA@
CONST	SEGMENT
??_C@_1EA@DOGAGKDH@?$AAl?$AAi?$AAs?$AAt?$AA?5?$AAi?$AAt?$AAe?$AAr?$AAa?$AAt?$AAo?$AAr?$AA?5?$AAn?$AAo?$AAt?$AA?5?$AAi?$AAn?$AAc?$AAr?$AAe?$AAm?$AAe?$AAn?$AAt?$AAa?$AAb?$AAl?$AAe?$AA?$AA@ DB 'l'
	DB	00H, 'i', 00H, 's', 00H, 't', 00H, ' ', 00H, 'i', 00H, 't', 00H
	DB	'e', 00H, 'r', 00H, 'a', 00H, 't', 00H, 'o', 00H, 'r', 00H, ' '
	DB	00H, 'n', 00H, 'o', 00H, 't', 00H, ' ', 00H, 'i', 00H, 'n', 00H
	DB	'c', 00H, 'r', 00H, 'e', 00H, 'm', 00H, 'e', 00H, 'n', 00H, 't'
	DB	00H, 'a', 00H, 'b', 00H, 'l', 00H, 'e', 00H, 00H, 00H ; `string'
; Function compile flags: /Odtp /RTCsu
CONST	ENDS
;	COMDAT ??E?$_List_const_iterator@V?$_List_val@PAV?$Trigger@VRaven_Bot@@@@V?$allocator@PAV?$Trigger@VRaven_Bot@@@@@std@@@std@@@std@@QAEAAV01@XZ
_TEXT	SEGMENT
_this$ = -4						; size = 4
??E?$_List_const_iterator@V?$_List_val@PAV?$Trigger@VRaven_Bot@@@@V?$allocator@PAV?$Trigger@VRaven_Bot@@@@@std@@@std@@@std@@QAEAAV01@XZ PROC ; std::_List_const_iterator<std::_List_val<Trigger<Raven_Bot> *,std::allocator<Trigger<Raven_Bot> *> > >::operator++, COMDAT
; _this$ = ecx

; 221  : 		{	// preincrement

	push	ebp
	mov	ebp, esp
	push	ecx
	mov	DWORD PTR [ebp-4], -858993460		; ccccccccH
	mov	DWORD PTR _this$[ebp], ecx

; 222  :  #if _ITERATOR_DEBUG_LEVEL == 2
; 223  : 		if (this->_Getcont() == 0
; 224  : 			|| this->_Ptr == 0
; 225  : 			|| this->_Ptr == ((_Mylist *)this->_Getcont())->_Myhead)

	mov	ecx, DWORD PTR _this$[ebp]
	call	?_Getcont@_Iterator_base12@std@@QBEPBU_Container_base12@2@XZ ; std::_Iterator_base12::_Getcont
	test	eax, eax
	je	SHORT $LN1@operator@3
	mov	eax, DWORD PTR _this$[ebp]
	cmp	DWORD PTR [eax+8], 0
	je	SHORT $LN1@operator@3
	mov	ecx, DWORD PTR _this$[ebp]
	call	?_Getcont@_Iterator_base12@std@@QBEPBU_Container_base12@2@XZ ; std::_Iterator_base12::_Getcont
	mov	ecx, DWORD PTR _this$[ebp]
	mov	edx, DWORD PTR [ecx+8]
	cmp	edx, DWORD PTR [eax+4]
	jne	SHORT $LN2@operator@3
$LN1@operator@3:

; 226  : 			{	// report error
; 227  : 			_DEBUG_ERROR("list iterator not incrementable");

	push	227					; 000000e3H
	push	OFFSET ??_C@_1II@CHCJCGAK@?$AAC?$AA?3?$AA?2?$AAP?$AAr?$AAo?$AAg?$AAr?$AAa?$AAm?$AA?5?$AAF?$AAi?$AAl?$AAe?$AAs?$AA?5?$AA?$CI?$AAx?$AA8?$AA6?$AA?$CJ?$AA?2?$AAM?$AAi?$AAc?$AAr?$AAo?$AAs?$AAo?$AAf?$AAt@
	push	OFFSET ??_C@_1EA@DOGAGKDH@?$AAl?$AAi?$AAs?$AAt?$AA?5?$AAi?$AAt?$AAe?$AAr?$AAa?$AAt?$AAo?$AAr?$AA?5?$AAn?$AAo?$AAt?$AA?5?$AAi?$AAn?$AAc?$AAr?$AAe?$AAm?$AAe?$AAn?$AAt?$AAa?$AAb?$AAl?$AAe?$AA?$AA@
	call	?_Debug_message@std@@YAXPB_W0I@Z	; std::_Debug_message
	add	esp, 12					; 0000000cH

; 228  : 			_SCL_SECURE_OUT_OF_RANGE;

	mov	eax, OFFSET ??_C@_0CE@OFMIGAMM@Standard?5C?$CL?$CL?5Libraries?5Out?5of?5Ra@
	test	eax, eax
	je	SHORT $LN5@operator@3
	xor	ecx, ecx
	jne	SHORT $LN6@operator@3
$LN5@operator@3:
	push	OFFSET ??_C@_1FG@IBPIFFN@?$AA?$CC?$AAS?$AAt?$AAa?$AAn?$AAd?$AAa?$AAr?$AAd?$AA?5?$AAC?$AA?$CL?$AA?$CL?$AA?5?$AAL?$AAi?$AAb?$AAr?$AAa?$AAr?$AAi?$AAe?$AAs?$AA?5?$AAO?$AAu?$AAt?$AA?5?$AAo?$AAf?$AA?5?$AAR@
	push	0
	push	228					; 000000e4H
	push	OFFSET ??_C@_1II@CHCJCGAK@?$AAC?$AA?3?$AA?2?$AAP?$AAr?$AAo?$AAg?$AAr?$AAa?$AAm?$AA?5?$AAF?$AAi?$AAl?$AAe?$AAs?$AA?5?$AA?$CI?$AAx?$AA8?$AA6?$AA?$CJ?$AA?2?$AAM?$AAi?$AAc?$AAr?$AAo?$AAs?$AAo?$AAf?$AAt@
	push	2
	call	__CrtDbgReportW
	add	esp, 20					; 00000014H
	cmp	eax, 1
	jne	SHORT $LN6@operator@3
	int	3
$LN6@operator@3:
	push	0
	push	228					; 000000e4H
	push	OFFSET ??_C@_1II@CHCJCGAK@?$AAC?$AA?3?$AA?2?$AAP?$AAr?$AAo?$AAg?$AAr?$AAa?$AAm?$AA?5?$AAF?$AAi?$AAl?$AAe?$AAs?$AA?5?$AA?$CI?$AAx?$AA8?$AA6?$AA?$CJ?$AA?2?$AAM?$AAi?$AAc?$AAr?$AAo?$AAs?$AAo?$AAf?$AAt@
	push	OFFSET ??_C@_1BDA@OJGBHHBO@?$AAs?$AAt?$AAd?$AA?3?$AA?3?$AA_?$AAL?$AAi?$AAs?$AAt?$AA_?$AAc?$AAo?$AAn?$AAs?$AAt?$AA_?$AAi?$AAt?$AAe?$AAr?$AAa?$AAt?$AAo?$AAr?$AA?$DM?$AAc?$AAl?$AAa?$AAs?$AAs?$AA?5@
	push	OFFSET ??_C@_1BO@MEPPHOO@?$AA?$CC?$AAo?$AAu?$AAt?$AA?5?$AAo?$AAf?$AA?5?$AAr?$AAa?$AAn?$AAg?$AAe?$AA?$CC?$AA?$AA@
	call	__invalid_parameter
	add	esp, 20					; 00000014H
$LN2@operator@3:

; 229  : 			}
; 230  : 
; 231  :  #elif _ITERATOR_DEBUG_LEVEL == 1
; 232  : 		_SCL_SECURE_VALIDATE(this->_Getcont() != 0 && this->_Ptr != 0);
; 233  : 		_SCL_SECURE_VALIDATE_RANGE(this->_Ptr !=
; 234  : 			((_Mylist *)this->_Getcont())->_Myhead);
; 235  :  #endif /* _ITERATOR_DEBUG_LEVEL */
; 236  : 
; 237  : 		this->_Ptr = _Mylist::_Nextnode(this->_Ptr);

	mov	eax, DWORD PTR _this$[ebp]
	mov	ecx, DWORD PTR [eax+8]
	push	ecx
	call	?_Nextnode@?$_List_val@PAV?$Trigger@VRaven_Bot@@@@V?$allocator@PAV?$Trigger@VRaven_Bot@@@@@std@@@std@@SAAAPAU_Node@?$_List_nod@PAV?$Trigger@VRaven_Bot@@@@V?$allocator@PAV?$Trigger@VRaven_Bot@@@@@std@@@2@PAU342@@Z ; std::_List_val<Trigger<Raven_Bot> *,std::allocator<Trigger<Raven_Bot> *> >::_Nextnode
	add	esp, 4
	mov	edx, DWORD PTR _this$[ebp]
	mov	eax, DWORD PTR [eax]
	mov	DWORD PTR [edx+8], eax

; 238  : 		return (*this);

	mov	eax, DWORD PTR _this$[ebp]

; 239  : 		}

	add	esp, 4
	cmp	ebp, esp
	call	__RTC_CheckEsp
	mov	esp, ebp
	pop	ebp
	ret	0
??E?$_List_const_iterator@V?$_List_val@PAV?$Trigger@VRaven_Bot@@@@V?$allocator@PAV?$Trigger@VRaven_Bot@@@@@std@@@std@@@std@@QAEAAV01@XZ ENDP ; std::_List_const_iterator<std::_List_val<Trigger<Raven_Bot> *,std::allocator<Trigger<Raven_Bot> *> > >::operator++
_TEXT	ENDS
PUBLIC	??8?$_List_const_iterator@V?$_List_val@PAV?$Trigger@VRaven_Bot@@@@V?$allocator@PAV?$Trigger@VRaven_Bot@@@@@std@@@std@@@std@@QBE_NABV01@@Z ; std::_List_const_iterator<std::_List_val<Trigger<Raven_Bot> *,std::allocator<Trigger<Raven_Bot> *> > >::operator==
; Function compile flags: /Odtp /RTCsu
;	COMDAT ??9?$_List_const_iterator@V?$_List_val@PAV?$Trigger@VRaven_Bot@@@@V?$allocator@PAV?$Trigger@VRaven_Bot@@@@@std@@@std@@@std@@QBE_NABV01@@Z
_TEXT	SEGMENT
_this$ = -4						; size = 4
__Right$ = 8						; size = 4
??9?$_List_const_iterator@V?$_List_val@PAV?$Trigger@VRaven_Bot@@@@V?$allocator@PAV?$Trigger@VRaven_Bot@@@@@std@@@std@@@std@@QBE_NABV01@@Z PROC ; std::_List_const_iterator<std::_List_val<Trigger<Raven_Bot> *,std::allocator<Trigger<Raven_Bot> *> > >::operator!=, COMDAT
; _this$ = ecx

; 299  : 		{	// test for iterator inequality

	push	ebp
	mov	ebp, esp
	push	ecx
	mov	DWORD PTR [ebp-4], -858993460		; ccccccccH
	mov	DWORD PTR _this$[ebp], ecx

; 300  : 		return (!(*this == _Right));

	mov	eax, DWORD PTR __Right$[ebp]
	push	eax
	mov	ecx, DWORD PTR _this$[ebp]
	call	??8?$_List_const_iterator@V?$_List_val@PAV?$Trigger@VRaven_Bot@@@@V?$allocator@PAV?$Trigger@VRaven_Bot@@@@@std@@@std@@@std@@QBE_NABV01@@Z ; std::_List_const_iterator<std::_List_val<Trigger<Raven_Bot> *,std::allocator<Trigger<Raven_Bot> *> > >::operator==
	movzx	eax, al
	neg	eax
	sbb	eax, eax
	add	eax, 1

; 301  : 		}

	add	esp, 4
	cmp	ebp, esp
	call	__RTC_CheckEsp
	mov	esp, ebp
	pop	ebp
	ret	4
??9?$_List_const_iterator@V?$_List_val@PAV?$Trigger@VRaven_Bot@@@@V?$allocator@PAV?$Trigger@VRaven_Bot@@@@@std@@@std@@@std@@QBE_NABV01@@Z ENDP ; std::_List_const_iterator<std::_List_val<Trigger<Raven_Bot> *,std::allocator<Trigger<Raven_Bot> *> > >::operator!=
; Function compile flags: /Odtp /RTCsu
; File c:\users\alec\desktop\gameaisource\vs2010\common\triggers\trigger.h
_TEXT	ENDS
;	COMDAT ?GraphNodeIndex@?$Trigger@VRaven_Bot@@@@QBEHXZ
_TEXT	SEGMENT
_this$ = -4						; size = 4
?GraphNodeIndex@?$Trigger@VRaven_Bot@@@@QBEHXZ PROC	; Trigger<Raven_Bot>::GraphNodeIndex, COMDAT
; _this$ = ecx

; 88   :   int  GraphNodeIndex()const{return m_iGraphNodeIndex;}

	push	ebp
	mov	ebp, esp
	push	ecx
	mov	DWORD PTR [ebp-4], -858993460		; ccccccccH
	mov	DWORD PTR _this$[ebp], ecx
	mov	eax, DWORD PTR _this$[ebp]
	mov	eax, DWORD PTR [eax+72]
	mov	esp, ebp
	pop	ebp
	ret	0
?GraphNodeIndex@?$Trigger@VRaven_Bot@@@@QBEHXZ ENDP	; Trigger<Raven_Bot>::GraphNodeIndex
; Function compile flags: /Odtp /RTCsu
_TEXT	ENDS
;	COMDAT ?isActive@?$Trigger@VRaven_Bot@@@@QAE_NXZ
_TEXT	SEGMENT
_this$ = -4						; size = 4
?isActive@?$Trigger@VRaven_Bot@@@@QAE_NXZ PROC		; Trigger<Raven_Bot>::isActive, COMDAT
; _this$ = ecx

; 90   :   bool isActive(){return m_bActive;}

	push	ebp
	mov	ebp, esp
	push	ecx
	mov	DWORD PTR [ebp-4], -858993460		; ccccccccH
	mov	DWORD PTR _this$[ebp], ecx
	mov	eax, DWORD PTR _this$[ebp]
	mov	al, BYTE PTR [eax+70]
	mov	esp, ebp
	pop	ebp
	ret	0
?isActive@?$Trigger@VRaven_Bot@@@@QAE_NXZ ENDP		; Trigger<Raven_Bot>::isActive
_TEXT	ENDS
PUBLIC	??1?$_List_val@VPathEdge@@V?$allocator@VPathEdge@@@std@@@std@@QAE@XZ ; std::_List_val<PathEdge,std::allocator<PathEdge> >::~_List_val<PathEdge,std::allocator<PathEdge> >
PUBLIC	?_Assign_rv@?$list@VPathEdge@@V?$allocator@VPathEdge@@@std@@@std@@QAEX$$QAV12@@Z ; std::list<PathEdge,std::allocator<PathEdge> >::_Assign_rv
PUBLIC	??$forward@V?$list@VPathEdge@@V?$allocator@VPathEdge@@@std@@@std@@@std@@YA$$QAV?$list@VPathEdge@@V?$allocator@VPathEdge@@@std@@@0@AAV10@@Z ; std::forward<std::list<PathEdge,std::allocator<PathEdge> > >
PUBLIC	??0?$_List_val@VPathEdge@@V?$allocator@VPathEdge@@@std@@@std@@QAE@V?$allocator@VPathEdge@@@1@@Z ; std::_List_val<PathEdge,std::allocator<PathEdge> >::_List_val<PathEdge,std::allocator<PathEdge> >
PUBLIC	??0?$allocator@VPathEdge@@@std@@QAE@ABV01@@Z	; std::allocator<PathEdge>::allocator<PathEdge>
;	COMDAT xdata$x
; File c:\program files (x86)\microsoft visual studio 10.0\vc\include\list
xdata$x	SEGMENT
__unwindtable$??0?$list@VPathEdge@@V?$allocator@VPathEdge@@@std@@@std@@QAE@$$QAV01@@Z DD 0ffffffffH
	DD	FLAT:__unwindfunclet$??0?$list@VPathEdge@@V?$allocator@VPathEdge@@@std@@@std@@QAE@$$QAV01@@Z$0
__ehfuncinfo$??0?$list@VPathEdge@@V?$allocator@VPathEdge@@@std@@@std@@QAE@$$QAV01@@Z DD 019930522H
	DD	01H
	DD	FLAT:__unwindtable$??0?$list@VPathEdge@@V?$allocator@VPathEdge@@@std@@@std@@QAE@$$QAV01@@Z
	DD	2 DUP(00H)
	DD	2 DUP(00H)
	DD	00H
	DD	01H
; Function compile flags: /Odtp /RTCsu
xdata$x	ENDS
;	COMDAT ??0?$list@VPathEdge@@V?$allocator@VPathEdge@@@std@@@std@@QAE@$$QAV01@@Z
_TEXT	SEGMENT
$T164681 = -20						; size = 4
_this$ = -16						; size = 4
__$EHRec$ = -12						; size = 12
__Right$ = 8						; size = 4
??0?$list@VPathEdge@@V?$allocator@VPathEdge@@@std@@@std@@QAE@$$QAV01@@Z PROC ; std::list<PathEdge,std::allocator<PathEdge> >::list<PathEdge,std::allocator<PathEdge> >, COMDAT
; _this$ = ecx

; 689  : 		{	// construct list by copying _Right

	push	ebp
	mov	ebp, esp
	push	-1
	push	__ehhandler$??0?$list@VPathEdge@@V?$allocator@VPathEdge@@@std@@@std@@QAE@$$QAV01@@Z
	mov	eax, DWORD PTR fs:0
